
tiktok.elf:     file format elf32-avr

Sections:
Idx Name          Size      VMA       LMA       File off  Algn
  0 .data         00000236  00800100  000012ee  00001382  2**0
                  CONTENTS, ALLOC, LOAD, DATA
  1 .text         000012ee  00000000  00000000  00000094  2**1
                  CONTENTS, ALLOC, LOAD, READONLY, CODE
  2 .bss          00000024  00800336  00800336  000015b8  2**0
                  ALLOC
  3 .comment      00000030  00000000  00000000  000015b8  2**0
                  CONTENTS, READONLY
  4 .note.gnu.avr.deviceinfo 0000003c  00000000  00000000  000015e8  2**2
                  CONTENTS, READONLY
  5 .debug_aranges 000001d0  00000000  00000000  00001624  2**0
                  CONTENTS, READONLY, DEBUGGING
  6 .debug_info   000027f7  00000000  00000000  000017f4  2**0
                  CONTENTS, READONLY, DEBUGGING
  7 .debug_abbrev 00000a04  00000000  00000000  00003feb  2**0
                  CONTENTS, READONLY, DEBUGGING
  8 .debug_line   000010b3  00000000  00000000  000049ef  2**0
                  CONTENTS, READONLY, DEBUGGING
  9 .debug_frame  0000055c  00000000  00000000  00005aa4  2**2
                  CONTENTS, READONLY, DEBUGGING
 10 .debug_str    000008d5  00000000  00000000  00006000  2**0
                  CONTENTS, READONLY, DEBUGGING
 11 .debug_loc    0000102f  00000000  00000000  000068d5  2**0
                  CONTENTS, READONLY, DEBUGGING
 12 .debug_ranges 000001f0  00000000  00000000  00007904  2**0
                  CONTENTS, READONLY, DEBUGGING

Disassembly of section .text:

00000000 <__vectors>:
       0:	0c 94 b4 01 	jmp	0x368	; 0x368 <__ctors_end>
       4:	0c 94 d1 01 	jmp	0x3a2	; 0x3a2 <__bad_interrupt>
       8:	0c 94 d1 01 	jmp	0x3a2	; 0x3a2 <__bad_interrupt>
       c:	0c 94 d1 01 	jmp	0x3a2	; 0x3a2 <__bad_interrupt>
      10:	0c 94 d1 01 	jmp	0x3a2	; 0x3a2 <__bad_interrupt>
      14:	0c 94 d1 01 	jmp	0x3a2	; 0x3a2 <__bad_interrupt>
      18:	0c 94 d1 01 	jmp	0x3a2	; 0x3a2 <__bad_interrupt>
      1c:	0c 94 d1 01 	jmp	0x3a2	; 0x3a2 <__bad_interrupt>
      20:	0c 94 d1 01 	jmp	0x3a2	; 0x3a2 <__bad_interrupt>
      24:	0c 94 d1 01 	jmp	0x3a2	; 0x3a2 <__bad_interrupt>
      28:	0c 94 d1 01 	jmp	0x3a2	; 0x3a2 <__bad_interrupt>
      2c:	0c 94 d1 01 	jmp	0x3a2	; 0x3a2 <__bad_interrupt>
      30:	0c 94 d1 01 	jmp	0x3a2	; 0x3a2 <__bad_interrupt>
      34:	0c 94 d1 01 	jmp	0x3a2	; 0x3a2 <__bad_interrupt>
      38:	0c 94 d1 01 	jmp	0x3a2	; 0x3a2 <__bad_interrupt>
      3c:	0c 94 d1 01 	jmp	0x3a2	; 0x3a2 <__bad_interrupt>
      40:	0c 94 d1 01 	jmp	0x3a2	; 0x3a2 <__bad_interrupt>
      44:	0c 94 d1 01 	jmp	0x3a2	; 0x3a2 <__bad_interrupt>
      48:	0c 94 d1 01 	jmp	0x3a2	; 0x3a2 <__bad_interrupt>
      4c:	0c 94 d1 01 	jmp	0x3a2	; 0x3a2 <__bad_interrupt>
      50:	0c 94 d1 01 	jmp	0x3a2	; 0x3a2 <__bad_interrupt>
      54:	0c 94 d1 01 	jmp	0x3a2	; 0x3a2 <__bad_interrupt>
      58:	0c 94 d1 01 	jmp	0x3a2	; 0x3a2 <__bad_interrupt>
      5c:	0c 94 d1 01 	jmp	0x3a2	; 0x3a2 <__bad_interrupt>
      60:	0c 94 d1 01 	jmp	0x3a2	; 0x3a2 <__bad_interrupt>
      64:	0c 94 d1 01 	jmp	0x3a2	; 0x3a2 <__bad_interrupt>
      68:	0c 94 d1 01 	jmp	0x3a2	; 0x3a2 <__bad_interrupt>
      6c:	0c 94 d1 01 	jmp	0x3a2	; 0x3a2 <__bad_interrupt>

00000070 <__trampolines_end>:
	...
      78:	00 06       	cpc	r0, r16
      7a:	5f 5f       	subi	r21, 0xFF	; 255
      7c:	06 00       	.word	0x0006	; ????
      7e:	00 00       	nop
      80:	00 07       	cpc	r16, r16
      82:	07 00       	.word	0x0007	; ????
      84:	07 07       	cpc	r16, r23
      86:	00 00       	nop
      88:	14 7f       	andi	r17, 0xF4	; 244
      8a:	7f 14       	cp	r7, r15
      8c:	7f 7f       	andi	r23, 0xFF	; 255
      8e:	14 00       	.word	0x0014	; ????
      90:	24 2e       	mov	r2, r20
      92:	6b 6b       	ori	r22, 0xBB	; 187
      94:	3a 12       	cpse	r3, r26
      96:	00 00       	nop
      98:	46 66       	ori	r20, 0x66	; 102
      9a:	30 18       	sub	r3, r0
      9c:	0c 66       	ori	r16, 0x6C	; 108
      9e:	62 00       	.word	0x0062	; ????
      a0:	30 7a       	andi	r19, 0xA0	; 160
      a2:	4f 5d       	subi	r20, 0xDF	; 223
      a4:	37 7a       	andi	r19, 0xA7	; 167
      a6:	48 00       	.word	0x0048	; ????
      a8:	04 07       	cpc	r16, r20
      aa:	03 00       	.word	0x0003	; ????
      ac:	00 00       	nop
      ae:	00 00       	nop
      b0:	00 1c       	adc	r0, r0
      b2:	3e 63       	ori	r19, 0x3E	; 62
      b4:	41 00       	.word	0x0041	; ????
      b6:	00 00       	nop
      b8:	00 41       	sbci	r16, 0x10	; 16
      ba:	63 3e       	cpi	r22, 0xE3	; 227
      bc:	1c 00       	.word	0x001c	; ????
      be:	00 00       	nop
      c0:	08 2a       	or	r0, r24
      c2:	3e 1c       	adc	r3, r14
      c4:	1c 3e       	cpi	r17, 0xEC	; 236
      c6:	2a 08       	sbc	r2, r10
      c8:	08 08       	sbc	r0, r8
      ca:	3e 3e       	cpi	r19, 0xEE	; 238
      cc:	08 08       	sbc	r0, r8
      ce:	00 00       	nop
      d0:	00 a0       	ldd	r0, Z+32	; 0x20
      d2:	e0 60       	ori	r30, 0x00	; 0
      d4:	00 00       	nop
      d6:	00 00       	nop
      d8:	08 08       	sbc	r0, r8
      da:	08 08       	sbc	r0, r8
      dc:	08 08       	sbc	r0, r8
      de:	00 00       	nop
      e0:	00 00       	nop
      e2:	60 60       	ori	r22, 0x00	; 0
      e4:	00 00       	nop
      e6:	00 00       	nop
      e8:	60 30       	cpi	r22, 0x00	; 0
      ea:	18 0c       	add	r1, r8
      ec:	06 03       	mulsu	r16, r22
      ee:	01 00       	.word	0x0001	; ????
      f0:	3e 7f       	andi	r19, 0xFE	; 254
      f2:	59 4d       	sbci	r21, 0xD9	; 217
      f4:	7f 3e       	cpi	r23, 0xEF	; 239
      f6:	00 00       	nop
      f8:	42 42       	sbci	r20, 0x22	; 34
      fa:	7f 7f       	andi	r23, 0xFF	; 255
      fc:	40 40       	sbci	r20, 0x00	; 0
      fe:	00 00       	nop
     100:	62 73       	andi	r22, 0x32	; 50
     102:	59 49       	sbci	r21, 0x99	; 153
     104:	6f 66       	ori	r22, 0x6F	; 111
     106:	00 00       	nop
     108:	22 63       	ori	r18, 0x32	; 50
     10a:	49 49       	sbci	r20, 0x99	; 153
     10c:	7f 36       	cpi	r23, 0x6F	; 111
     10e:	00 00       	nop
     110:	18 1c       	adc	r1, r8
     112:	16 13       	cpse	r17, r22
     114:	7f 7f       	andi	r23, 0xFF	; 255
     116:	10 00       	.word	0x0010	; ????
     118:	27 67       	ori	r18, 0x77	; 119
     11a:	45 45       	sbci	r20, 0x55	; 85
     11c:	7d 39       	cpi	r23, 0x9D	; 157
     11e:	00 00       	nop
     120:	3c 7e       	andi	r19, 0xEC	; 236
     122:	4b 49       	sbci	r20, 0x9B	; 155
     124:	79 30       	cpi	r23, 0x09	; 9
     126:	00 00       	nop
     128:	03 63       	ori	r16, 0x33	; 51
     12a:	71 19       	sub	r23, r1
     12c:	0f 07       	cpc	r16, r31
     12e:	00 00       	nop
     130:	36 7f       	andi	r19, 0xF6	; 246
     132:	49 49       	sbci	r20, 0x99	; 153
     134:	7f 36       	cpi	r23, 0x6F	; 111
     136:	00 00       	nop
     138:	06 4f       	sbci	r16, 0xF6	; 246
     13a:	49 69       	ori	r20, 0x99	; 153
     13c:	3f 1e       	adc	r3, r31
     13e:	00 00       	nop
     140:	00 00       	nop
     142:	6c 6c       	ori	r22, 0xCC	; 204
     144:	00 00       	nop
     146:	00 00       	nop
     148:	00 a0       	ldd	r0, Z+32	; 0x20
     14a:	ec 6c       	ori	r30, 0xCC	; 204
     14c:	00 00       	nop
     14e:	00 00       	nop
     150:	08 1c       	adc	r0, r8
     152:	36 63       	ori	r19, 0x36	; 54
     154:	41 00       	.word	0x0041	; ????
     156:	00 00       	nop
     158:	14 14       	cp	r1, r4
     15a:	14 14       	cp	r1, r4
     15c:	14 14       	cp	r1, r4
     15e:	00 00       	nop
     160:	00 41       	sbci	r16, 0x10	; 16
     162:	63 36       	cpi	r22, 0x63	; 99
     164:	1c 08       	sbc	r1, r12
     166:	00 00       	nop
     168:	02 03       	mulsu	r16, r18
     16a:	51 59       	subi	r21, 0x91	; 145
     16c:	0f 06       	cpc	r0, r31
     16e:	00 00       	nop
     170:	3e 7f       	andi	r19, 0xFE	; 254
     172:	41 5d       	subi	r20, 0xD1	; 209
     174:	5d 1f       	adc	r21, r29
     176:	1e 00       	.word	0x001e	; ????
     178:	7c 7e       	andi	r23, 0xEC	; 236
     17a:	13 13       	cpse	r17, r19
     17c:	7e 7c       	andi	r23, 0xCE	; 206
     17e:	00 00       	nop
     180:	41 7f       	andi	r20, 0xF1	; 241
     182:	7f 49       	sbci	r23, 0x9F	; 159
     184:	49 7f       	andi	r20, 0xF9	; 249
     186:	36 00       	.word	0x0036	; ????
     188:	1c 3e       	cpi	r17, 0xEC	; 236
     18a:	63 41       	sbci	r22, 0x13	; 19
     18c:	41 63       	ori	r20, 0x31	; 49
     18e:	22 00       	.word	0x0022	; ????
     190:	41 7f       	andi	r20, 0xF1	; 241
     192:	7f 41       	sbci	r23, 0x1F	; 31
     194:	63 7f       	andi	r22, 0xF3	; 243
     196:	1c 00       	.word	0x001c	; ????
     198:	41 7f       	andi	r20, 0xF1	; 241
     19a:	7f 49       	sbci	r23, 0x9F	; 159
     19c:	5d 41       	sbci	r21, 0x1D	; 29
     19e:	63 00       	.word	0x0063	; ????
     1a0:	41 7f       	andi	r20, 0xF1	; 241
     1a2:	7f 49       	sbci	r23, 0x9F	; 159
     1a4:	1d 01       	movw	r2, r26
     1a6:	03 00       	.word	0x0003	; ????
     1a8:	1c 3e       	cpi	r17, 0xEC	; 236
     1aa:	63 41       	sbci	r22, 0x13	; 19
     1ac:	51 73       	andi	r21, 0x31	; 49
     1ae:	72 00       	.word	0x0072	; ????
     1b0:	7f 7f       	andi	r23, 0xFF	; 255
     1b2:	08 08       	sbc	r0, r8
     1b4:	7f 7f       	andi	r23, 0xFF	; 255
     1b6:	00 00       	nop
     1b8:	00 41       	sbci	r16, 0x10	; 16
     1ba:	7f 7f       	andi	r23, 0xFF	; 255
     1bc:	41 00       	.word	0x0041	; ????
     1be:	00 00       	nop
     1c0:	30 70       	andi	r19, 0x00	; 0
     1c2:	40 41       	sbci	r20, 0x10	; 16
     1c4:	7f 3f       	cpi	r23, 0xFF	; 255
     1c6:	01 00       	.word	0x0001	; ????
     1c8:	41 7f       	andi	r20, 0xF1	; 241
     1ca:	7f 08       	sbc	r7, r15
     1cc:	1c 77       	andi	r17, 0x7C	; 124
     1ce:	63 00       	.word	0x0063	; ????
     1d0:	41 7f       	andi	r20, 0xF1	; 241
     1d2:	7f 41       	sbci	r23, 0x1F	; 31
     1d4:	40 60       	ori	r20, 0x00	; 0
     1d6:	70 00       	.word	0x0070	; ????
     1d8:	7f 7f       	andi	r23, 0xFF	; 255
     1da:	06 0c       	add	r0, r6
     1dc:	06 7f       	andi	r16, 0xF6	; 246
     1de:	7f 00       	.word	0x007f	; ????
     1e0:	7f 7f       	andi	r23, 0xFF	; 255
     1e2:	06 0c       	add	r0, r6
     1e4:	18 7f       	andi	r17, 0xF8	; 248
     1e6:	7f 00       	.word	0x007f	; ????
     1e8:	1c 3e       	cpi	r17, 0xEC	; 236
     1ea:	63 41       	sbci	r22, 0x13	; 19
     1ec:	63 3e       	cpi	r22, 0xE3	; 227
     1ee:	1c 00       	.word	0x001c	; ????
     1f0:	41 7f       	andi	r20, 0xF1	; 241
     1f2:	7f 49       	sbci	r23, 0x9F	; 159
     1f4:	09 0f       	add	r16, r25
     1f6:	06 00       	.word	0x0006	; ????
     1f8:	1e 3f       	cpi	r17, 0xFE	; 254
     1fa:	21 71       	andi	r18, 0x11	; 17
     1fc:	7f 5e       	subi	r23, 0xEF	; 239
     1fe:	00 00       	nop
     200:	41 7f       	andi	r20, 0xF1	; 241
     202:	7f 19       	sub	r23, r15
     204:	39 6f       	ori	r19, 0xF9	; 249
     206:	46 00       	.word	0x0046	; ????
     208:	26 67       	ori	r18, 0x76	; 118
     20a:	4d 59       	subi	r20, 0x9D	; 157
     20c:	7b 32       	cpi	r23, 0x2B	; 43
     20e:	00 00       	nop
     210:	03 41       	sbci	r16, 0x13	; 19
     212:	7f 7f       	andi	r23, 0xFF	; 255
     214:	41 03       	mulsu	r20, r17
     216:	00 00       	nop
     218:	7f 7f       	andi	r23, 0xFF	; 255
     21a:	40 40       	sbci	r20, 0x00	; 0
     21c:	7f 7f       	andi	r23, 0xFF	; 255
     21e:	00 00       	nop
     220:	1f 3f       	cpi	r17, 0xFF	; 255
     222:	60 60       	ori	r22, 0x00	; 0
     224:	3f 1f       	adc	r19, r31
     226:	00 00       	nop
     228:	7f 7f       	andi	r23, 0xFF	; 255
     22a:	30 18       	sub	r3, r0
     22c:	30 7f       	andi	r19, 0xF0	; 240
     22e:	7f 00       	.word	0x007f	; ????
     230:	63 77       	andi	r22, 0x73	; 115
     232:	1c 08       	sbc	r1, r12
     234:	1c 77       	andi	r17, 0x7C	; 124
     236:	63 00       	.word	0x0063	; ????
     238:	07 4f       	sbci	r16, 0xF7	; 247
     23a:	78 78       	andi	r23, 0x88	; 136
     23c:	4f 07       	cpc	r20, r31
     23e:	00 00       	nop
     240:	67 73       	andi	r22, 0x37	; 55
     242:	59 4d       	sbci	r21, 0xD9	; 217
     244:	47 63       	ori	r20, 0x37	; 55
     246:	71 00       	.word	0x0071	; ????
     248:	00 7f       	andi	r16, 0xF0	; 240
     24a:	7f 41       	sbci	r23, 0x1F	; 31
     24c:	41 00       	.word	0x0041	; ????
     24e:	00 00       	nop
     250:	01 03       	mulsu	r16, r17
     252:	06 0c       	add	r0, r6
     254:	18 30       	cpi	r17, 0x08	; 8
     256:	60 00       	.word	0x0060	; ????
     258:	00 41       	sbci	r16, 0x10	; 16
     25a:	41 7f       	andi	r20, 0xF1	; 241
     25c:	7f 00       	.word	0x007f	; ????
     25e:	00 00       	nop
     260:	08 0c       	add	r0, r8
     262:	06 03       	mulsu	r16, r22
     264:	06 0c       	add	r0, r6
     266:	08 00       	.word	0x0008	; ????
     268:	80 80       	ld	r8, Z
     26a:	80 80       	ld	r8, Z
     26c:	80 80       	ld	r8, Z
     26e:	80 80       	ld	r8, Z
     270:	00 00       	nop
     272:	03 07       	cpc	r16, r19
     274:	04 00       	.word	0x0004	; ????
     276:	00 00       	nop
     278:	20 74       	andi	r18, 0x40	; 64
     27a:	54 54       	subi	r21, 0x44	; 68
     27c:	3c 78       	andi	r19, 0x8C	; 140
     27e:	40 00       	.word	0x0040	; ????
     280:	41 3f       	cpi	r20, 0xF1	; 241
     282:	7f 44       	sbci	r23, 0x4F	; 79
     284:	44 7c       	andi	r20, 0xC4	; 196
     286:	38 00       	.word	0x0038	; ????
     288:	38 7c       	andi	r19, 0xC8	; 200
     28a:	44 44       	sbci	r20, 0x44	; 68
     28c:	6c 28       	or	r6, r12
     28e:	00 00       	nop
     290:	30 78       	andi	r19, 0x80	; 128
     292:	48 49       	sbci	r20, 0x98	; 152
     294:	3f 7f       	andi	r19, 0xFF	; 255
     296:	40 00       	.word	0x0040	; ????
     298:	38 7c       	andi	r19, 0xC8	; 200
     29a:	54 54       	subi	r21, 0x44	; 68
     29c:	5c 18       	sub	r5, r12
     29e:	00 00       	nop
     2a0:	48 7e       	andi	r20, 0xE8	; 232
     2a2:	7f 49       	sbci	r23, 0x9F	; 159
     2a4:	03 02       	muls	r16, r19
     2a6:	00 00       	nop
     2a8:	98 bc       	out	0x28, r9	; 40
     2aa:	a4 a4       	ldd	r10, Z+44	; 0x2c
     2ac:	f8 7c       	andi	r31, 0xC8	; 200
     2ae:	04 00       	.word	0x0004	; ????
     2b0:	41 7f       	andi	r20, 0xF1	; 241
     2b2:	7f 08       	sbc	r7, r15
     2b4:	04 7c       	andi	r16, 0xC4	; 196
     2b6:	78 00       	.word	0x0078	; ????
     2b8:	00 44       	sbci	r16, 0x40	; 64
     2ba:	7d 7d       	andi	r23, 0xDD	; 221
     2bc:	40 00       	.word	0x0040	; ????
     2be:	00 00       	nop
     2c0:	40 c4       	rjmp	.+2176   	; 0xb42 <GUI_menu_init+0x124>
     2c2:	84 fd       	sbrc	r24, 4
     2c4:	7d 00       	.word	0x007d	; ????
     2c6:	00 00       	nop
     2c8:	41 7f       	andi	r20, 0xF1	; 241
     2ca:	7f 10       	cpse	r7, r15
     2cc:	38 6c       	ori	r19, 0xC8	; 200
     2ce:	44 00       	.word	0x0044	; ????
     2d0:	00 41       	sbci	r16, 0x10	; 16
     2d2:	7f 7f       	andi	r23, 0xFF	; 255
     2d4:	40 00       	.word	0x0040	; ????
     2d6:	00 00       	nop
     2d8:	7c 7c       	andi	r23, 0xCC	; 204
     2da:	0c 18       	sub	r0, r12
     2dc:	0c 7c       	andi	r16, 0xCC	; 204
     2de:	78 00       	.word	0x0078	; ????
     2e0:	7c 7c       	andi	r23, 0xCC	; 204
     2e2:	04 04       	cpc	r0, r4
     2e4:	7c 78       	andi	r23, 0x8C	; 140
     2e6:	00 00       	nop
     2e8:	38 7c       	andi	r19, 0xC8	; 200
     2ea:	44 44       	sbci	r20, 0x44	; 68
     2ec:	7c 38       	cpi	r23, 0x8C	; 140
     2ee:	00 00       	nop
     2f0:	84 fc       	sbrc	r8, 4
     2f2:	f8 a4       	ldd	r15, Y+40	; 0x28
     2f4:	24 3c       	cpi	r18, 0xC4	; 196
     2f6:	18 00       	.word	0x0018	; ????
     2f8:	18 3c       	cpi	r17, 0xC8	; 200
     2fa:	24 a4       	ldd	r2, Z+44	; 0x2c
     2fc:	f8 fc       	.word	0xfcf8	; ????
     2fe:	84 00       	.word	0x0084	; ????
     300:	44 7c       	andi	r20, 0xC4	; 196
     302:	78 44       	sbci	r23, 0x48	; 72
     304:	1c 18       	sub	r1, r12
     306:	00 00       	nop
     308:	48 5c       	subi	r20, 0xC8	; 200
     30a:	54 54       	subi	r21, 0x44	; 68
     30c:	74 24       	eor	r7, r4
     30e:	00 00       	nop
     310:	00 04       	cpc	r0, r0
     312:	3e 7f       	andi	r19, 0xFE	; 254
     314:	44 24       	eor	r4, r4
     316:	00 00       	nop
     318:	3c 7c       	andi	r19, 0xCC	; 204
     31a:	40 40       	sbci	r20, 0x00	; 0
     31c:	3c 7c       	andi	r19, 0xCC	; 204
     31e:	40 00       	.word	0x0040	; ????
     320:	1c 3c       	cpi	r17, 0xCC	; 204
     322:	60 60       	ori	r22, 0x00	; 0
     324:	3c 1c       	adc	r3, r12
     326:	00 00       	nop
     328:	3c 7c       	andi	r19, 0xCC	; 204
     32a:	60 30       	cpi	r22, 0x00	; 0
     32c:	60 7c       	andi	r22, 0xC0	; 192
     32e:	3c 00       	.word	0x003c	; ????
     330:	44 6c       	ori	r20, 0xC4	; 196
     332:	38 10       	cpse	r3, r8
     334:	38 6c       	ori	r19, 0xC8	; 200
     336:	44 00       	.word	0x0044	; ????
     338:	9c bc       	out	0x2c, r9	; 44
     33a:	a0 a0       	ldd	r10, Z+32	; 0x20
     33c:	fc 7c       	andi	r31, 0xCC	; 204
     33e:	00 00       	nop
     340:	4c 64       	ori	r20, 0x4C	; 76
     342:	74 5c       	subi	r23, 0xC4	; 196
     344:	4c 64       	ori	r20, 0x4C	; 76
     346:	00 00       	nop
     348:	08 08       	sbc	r0, r8
     34a:	3e 77       	andi	r19, 0x7E	; 126
     34c:	41 41       	sbci	r20, 0x11	; 17
     34e:	00 00       	nop
     350:	00 00       	nop
     352:	00 77       	andi	r16, 0x70	; 112
     354:	77 00       	.word	0x0077	; ????
     356:	00 00       	nop
     358:	41 41       	sbci	r20, 0x11	; 17
     35a:	77 3e       	cpi	r23, 0xE7	; 231
     35c:	08 08       	sbc	r0, r8
     35e:	00 00       	nop
     360:	02 03       	mulsu	r16, r18
     362:	01 03       	mulsu	r16, r17
     364:	02 03       	mulsu	r16, r18
     366:	01 00       	.word	0x0001	; ????

00000368 <__ctors_end>:
     368:	11 24       	eor	r1, r1
     36a:	1f be       	out	0x3f, r1	; 63
     36c:	cf ef       	ldi	r28, 0xFF	; 255
     36e:	d4 e0       	ldi	r29, 0x04	; 4
     370:	de bf       	out	0x3e, r29	; 62
     372:	cd bf       	out	0x3d, r28	; 61

00000374 <__do_copy_data>:
     374:	13 e0       	ldi	r17, 0x03	; 3
     376:	a0 e0       	ldi	r26, 0x00	; 0
     378:	b1 e0       	ldi	r27, 0x01	; 1
     37a:	ee ee       	ldi	r30, 0xEE	; 238
     37c:	f2 e1       	ldi	r31, 0x12	; 18
     37e:	02 c0       	rjmp	.+4      	; 0x384 <__do_copy_data+0x10>
     380:	05 90       	lpm	r0, Z+
     382:	0d 92       	st	X+, r0
     384:	a6 33       	cpi	r26, 0x36	; 54
     386:	b1 07       	cpc	r27, r17
     388:	d9 f7       	brne	.-10     	; 0x380 <__do_copy_data+0xc>

0000038a <__do_clear_bss>:
     38a:	23 e0       	ldi	r18, 0x03	; 3
     38c:	a6 e3       	ldi	r26, 0x36	; 54
     38e:	b3 e0       	ldi	r27, 0x03	; 3
     390:	01 c0       	rjmp	.+2      	; 0x394 <.do_clear_bss_start>

00000392 <.do_clear_bss_loop>:
     392:	1d 92       	st	X+, r1

00000394 <.do_clear_bss_start>:
     394:	aa 35       	cpi	r26, 0x5A	; 90
     396:	b2 07       	cpc	r27, r18
     398:	e1 f7       	brne	.-8      	; 0x392 <.do_clear_bss_loop>
     39a:	0e 94 58 07 	call	0xeb0	; 0xeb0 <main>
     39e:	0c 94 75 09 	jmp	0x12ea	; 0x12ea <_exit>

000003a2 <__bad_interrupt>:
     3a2:	0c 94 00 00 	jmp	0	; 0x0 <__vectors>

000003a6 <uart_receive>:
	printf("Length: %u \n",(unsigned char) message->length);
	for(uint8_t i=0; i<(uint8_t)(message->length); i++){
		printf("Package [%d]: %d \n", i, message->data[i]);
	}
	printf("END CAN Message print.\n\n");
}
     3a6:	5f 9b       	sbis	0x0b, 7	; 11
     3a8:	03 c0       	rjmp	.+6      	; 0x3b0 <uart_receive+0xa>
     3aa:	8c b1       	in	r24, 0x0c	; 12
     3ac:	90 e0       	ldi	r25, 0x00	; 0
     3ae:	08 95       	ret
     3b0:	80 e0       	ldi	r24, 0x00	; 0
     3b2:	90 e0       	ldi	r25, 0x00	; 0
     3b4:	08 95       	ret

000003b6 <usart_putchar>:
     3b6:	5d 9b       	sbis	0x0b, 5	; 11
     3b8:	fe cf       	rjmp	.-4      	; 0x3b6 <usart_putchar>
     3ba:	8c b9       	out	0x0c, r24	; 12
     3bc:	08 95       	ret

000003be <usart_putchar_printf>:
     3be:	cf 93       	push	r28
     3c0:	c8 2f       	mov	r28, r24
     3c2:	8a 30       	cpi	r24, 0x0A	; 10
     3c4:	21 f4       	brne	.+8      	; 0x3ce <usart_putchar_printf+0x10>
     3c6:	8d e0       	ldi	r24, 0x0D	; 13
     3c8:	90 e0       	ldi	r25, 0x00	; 0
     3ca:	0e 94 db 01 	call	0x3b6	; 0x3b6 <usart_putchar>
     3ce:	8c 2f       	mov	r24, r28
     3d0:	90 e0       	ldi	r25, 0x00	; 0
     3d2:	0e 94 db 01 	call	0x3b6	; 0x3b6 <usart_putchar>
     3d6:	80 e0       	ldi	r24, 0x00	; 0
     3d8:	90 e0       	ldi	r25, 0x00	; 0
     3da:	cf 91       	pop	r28
     3dc:	08 95       	ret

000003de <uart_init>:
     3de:	10 bc       	out	0x20, r1	; 32
     3e0:	8f e1       	ldi	r24, 0x1F	; 31
     3e2:	89 b9       	out	0x09, r24	; 9
     3e4:	88 e1       	ldi	r24, 0x18	; 24
     3e6:	8a b9       	out	0x0a, r24	; 10
     3e8:	8e e8       	ldi	r24, 0x8E	; 142
     3ea:	80 bd       	out	0x20, r24	; 32
     3ec:	63 ed       	ldi	r22, 0xD3	; 211
     3ee:	71 e0       	ldi	r23, 0x01	; 1
     3f0:	8f ed       	ldi	r24, 0xDF	; 223
     3f2:	91 e0       	ldi	r25, 0x01	; 1
     3f4:	0e 94 d7 08 	call	0x11ae	; 0x11ae <fdevopen>
     3f8:	08 95       	ret

000003fa <xmem_init>:
     3fa:	85 b7       	in	r24, 0x35	; 53
     3fc:	80 68       	ori	r24, 0x80	; 128
     3fe:	85 bf       	out	0x35, r24	; 53
     400:	80 b7       	in	r24, 0x30	; 48
     402:	80 62       	ori	r24, 0x20	; 32
     404:	80 bf       	out	0x30, r24	; 48
     406:	08 95       	ret

00000408 <xmem_write>:
     408:	fa 01       	movw	r30, r20
     40a:	e6 0f       	add	r30, r22
     40c:	f7 1f       	adc	r31, r23
     40e:	80 83       	st	Z, r24
     410:	08 95       	ret

00000412 <xmem_read>:
     412:	86 0f       	add	r24, r22
     414:	97 1f       	adc	r25, r23
     416:	fc 01       	movw	r30, r24
     418:	80 81       	ld	r24, Z
     41a:	08 95       	ret

0000041c <PWM_init>:
     41c:	81 b3       	in	r24, 0x11	; 17
     41e:	80 61       	ori	r24, 0x10	; 16
     420:	81 bb       	out	0x11, r24	; 17
     422:	eb e8       	ldi	r30, 0x8B	; 139
     424:	f0 e0       	ldi	r31, 0x00	; 0
     426:	80 81       	ld	r24, Z
     428:	80 64       	ori	r24, 0x40	; 64
     42a:	80 83       	st	Z, r24
     42c:	ea e8       	ldi	r30, 0x8A	; 138
     42e:	f0 e0       	ldi	r31, 0x00	; 0
     430:	80 81       	ld	r24, Z
     432:	89 60       	ori	r24, 0x09	; 9
     434:	80 83       	st	Z, r24
     436:	10 92 87 00 	sts	0x0087, r1	; 0x800087 <__TEXT_REGION_LENGTH__+0x7fc087>
     43a:	10 92 86 00 	sts	0x0086, r1	; 0x800086 <__TEXT_REGION_LENGTH__+0x7fc086>
     43e:	08 95       	ret

00000440 <ADC_init_read>:
     440:	40 e0       	ldi	r20, 0x00	; 0
     442:	54 e1       	ldi	r21, 0x14	; 20
     444:	61 e0       	ldi	r22, 0x01	; 1
     446:	70 e0       	ldi	r23, 0x00	; 0
     448:	80 e8       	ldi	r24, 0x80	; 128
     44a:	0e 94 04 02 	call	0x408	; 0x408 <xmem_write>
     44e:	08 95       	ret

00000450 <get_joypos>:
     450:	0f 93       	push	r16
     452:	1f 93       	push	r17
     454:	cf 93       	push	r28
     456:	df 93       	push	r29
     458:	cd b7       	in	r28, 0x3d	; 61
     45a:	de b7       	in	r29, 0x3e	; 62
     45c:	28 97       	sbiw	r28, 0x08	; 8
     45e:	0f b6       	in	r0, 0x3f	; 63
     460:	f8 94       	cli
     462:	de bf       	out	0x3e, r29	; 62
     464:	0f be       	out	0x3f, r0	; 63
     466:	cd bf       	out	0x3d, r28	; 61
     468:	0e 94 20 02 	call	0x440	; 0x440 <ADC_init_read>
     46c:	60 e0       	ldi	r22, 0x00	; 0
     46e:	74 e1       	ldi	r23, 0x14	; 20
     470:	80 e0       	ldi	r24, 0x00	; 0
     472:	90 e0       	ldi	r25, 0x00	; 0
     474:	0e 94 09 02 	call	0x412	; 0x412 <xmem_read>
     478:	01 e4       	ldi	r16, 0x41	; 65
     47a:	13 e0       	ldi	r17, 0x03	; 3
     47c:	90 e0       	ldi	r25, 0x00	; 0
     47e:	f8 01       	movw	r30, r16
     480:	91 83       	std	Z+1, r25	; 0x01
     482:	80 83       	st	Z, r24
     484:	60 e0       	ldi	r22, 0x00	; 0
     486:	74 e1       	ldi	r23, 0x14	; 20
     488:	80 e0       	ldi	r24, 0x00	; 0
     48a:	90 e0       	ldi	r25, 0x00	; 0
     48c:	0e 94 09 02 	call	0x412	; 0x412 <xmem_read>
     490:	90 e0       	ldi	r25, 0x00	; 0
     492:	f8 01       	movw	r30, r16
     494:	93 83       	std	Z+3, r25	; 0x03
     496:	82 83       	std	Z+2, r24	; 0x02
     498:	60 e0       	ldi	r22, 0x00	; 0
     49a:	74 e1       	ldi	r23, 0x14	; 20
     49c:	80 e0       	ldi	r24, 0x00	; 0
     49e:	90 e0       	ldi	r25, 0x00	; 0
     4a0:	0e 94 09 02 	call	0x412	; 0x412 <xmem_read>
     4a4:	60 e0       	ldi	r22, 0x00	; 0
     4a6:	74 e1       	ldi	r23, 0x14	; 20
     4a8:	80 e0       	ldi	r24, 0x00	; 0
     4aa:	90 e0       	ldi	r25, 0x00	; 0
     4ac:	0e 94 09 02 	call	0x412	; 0x412 <xmem_read>
     4b0:	81 ee       	ldi	r24, 0xE1	; 225
     4b2:	94 e0       	ldi	r25, 0x04	; 4
     4b4:	01 97       	sbiw	r24, 0x01	; 1
     4b6:	f1 f7       	brne	.-4      	; 0x4b4 <get_joypos+0x64>
     4b8:	00 c0       	rjmp	.+0      	; 0x4ba <get_joypos+0x6a>
     4ba:	00 00       	nop
     4bc:	f8 01       	movw	r30, r16
     4be:	80 81       	ld	r24, Z
     4c0:	91 81       	ldd	r25, Z+1	; 0x01
     4c2:	9c 01       	movw	r18, r24
     4c4:	21 5a       	subi	r18, 0xA1	; 161
     4c6:	31 09       	sbc	r19, r1
     4c8:	2e 30       	cpi	r18, 0x0E	; 14
     4ca:	31 05       	cpc	r19, r1
     4cc:	38 f4       	brcc	.+14     	; 0x4dc <get_joypos+0x8c>
     4ce:	11 82       	std	Z+1, r1	; 0x01
     4d0:	10 82       	st	Z, r1
     4d2:	89 ef       	ldi	r24, 0xF9	; 249
     4d4:	91 e0       	ldi	r25, 0x01	; 1
     4d6:	95 83       	std	Z+5, r25	; 0x05
     4d8:	84 83       	std	Z+4, r24	; 0x04
     4da:	4d c0       	rjmp	.+154    	; 0x576 <__stack+0x77>
     4dc:	80 3a       	cpi	r24, 0xA0	; 160
     4de:	91 05       	cpc	r25, r1
     4e0:	f0 f4       	brcc	.+60     	; 0x51e <__stack+0x1f>
     4e2:	44 e6       	ldi	r20, 0x64	; 100
     4e4:	48 9f       	mul	r20, r24
     4e6:	90 01       	movw	r18, r0
     4e8:	49 9f       	mul	r20, r25
     4ea:	30 0d       	add	r19, r0
     4ec:	11 24       	eor	r1, r1
     4ee:	a3 eb       	ldi	r26, 0xB3	; 179
     4f0:	b2 e6       	ldi	r27, 0x62	; 98
     4f2:	0e 94 a7 07 	call	0xf4e	; 0xf4e <__umulhisi3>
     4f6:	00 24       	eor	r0, r0
     4f8:	88 0f       	add	r24, r24
     4fa:	99 1f       	adc	r25, r25
     4fc:	00 1c       	adc	r0, r0
     4fe:	88 0f       	add	r24, r24
     500:	99 1f       	adc	r25, r25
     502:	00 1c       	adc	r0, r0
     504:	89 2f       	mov	r24, r25
     506:	90 2d       	mov	r25, r0
     508:	84 56       	subi	r24, 0x64	; 100
     50a:	91 09       	sbc	r25, r1
     50c:	e1 e4       	ldi	r30, 0x41	; 65
     50e:	f3 e0       	ldi	r31, 0x03	; 3
     510:	91 83       	std	Z+1, r25	; 0x01
     512:	80 83       	st	Z, r24
     514:	81 e0       	ldi	r24, 0x01	; 1
     516:	92 e0       	ldi	r25, 0x02	; 2
     518:	95 83       	std	Z+5, r25	; 0x05
     51a:	84 83       	std	Z+4, r24	; 0x04
     51c:	2c c0       	rjmp	.+88     	; 0x576 <__stack+0x77>
     51e:	9c 01       	movw	r18, r24
     520:	2f 5a       	subi	r18, 0xAF	; 175
     522:	31 09       	sbc	r19, r1
     524:	21 35       	cpi	r18, 0x51	; 81
     526:	31 05       	cpc	r19, r1
     528:	f0 f4       	brcc	.+60     	; 0x566 <__stack+0x67>
     52a:	44 e6       	ldi	r20, 0x64	; 100
     52c:	48 9f       	mul	r20, r24
     52e:	90 01       	movw	r18, r0
     530:	49 9f       	mul	r20, r25
     532:	30 0d       	add	r19, r0
     534:	11 24       	eor	r1, r1
     536:	28 56       	subi	r18, 0x68	; 104
     538:	32 44       	sbci	r19, 0x42	; 66
     53a:	a1 ec       	ldi	r26, 0xC1	; 193
     53c:	b0 ec       	ldi	r27, 0xC0	; 192
     53e:	0e 94 a7 07 	call	0xf4e	; 0xf4e <__umulhisi3>
     542:	00 24       	eor	r0, r0
     544:	88 0f       	add	r24, r24
     546:	99 1f       	adc	r25, r25
     548:	00 1c       	adc	r0, r0
     54a:	88 0f       	add	r24, r24
     54c:	99 1f       	adc	r25, r25
     54e:	00 1c       	adc	r0, r0
     550:	89 2f       	mov	r24, r25
     552:	90 2d       	mov	r25, r0
     554:	e1 e4       	ldi	r30, 0x41	; 65
     556:	f3 e0       	ldi	r31, 0x03	; 3
     558:	91 83       	std	Z+1, r25	; 0x01
     55a:	80 83       	st	Z, r24
     55c:	86 e0       	ldi	r24, 0x06	; 6
     55e:	92 e0       	ldi	r25, 0x02	; 2
     560:	95 83       	std	Z+5, r25	; 0x05
     562:	84 83       	std	Z+4, r24	; 0x04
     564:	08 c0       	rjmp	.+16     	; 0x576 <__stack+0x77>
     566:	e1 e4       	ldi	r30, 0x41	; 65
     568:	f3 e0       	ldi	r31, 0x03	; 3
     56a:	11 82       	std	Z+1, r1	; 0x01
     56c:	10 82       	st	Z, r1
     56e:	8c e0       	ldi	r24, 0x0C	; 12
     570:	92 e0       	ldi	r25, 0x02	; 2
     572:	95 83       	std	Z+5, r25	; 0x05
     574:	84 83       	std	Z+4, r24	; 0x04
     576:	80 91 43 03 	lds	r24, 0x0343	; 0x800343 <joystick+0x2>
     57a:	90 91 44 03 	lds	r25, 0x0344	; 0x800344 <joystick+0x3>
     57e:	9c 01       	movw	r18, r24
     580:	2c 59       	subi	r18, 0x9C	; 156
     582:	31 09       	sbc	r19, r1
     584:	2e 30       	cpi	r18, 0x0E	; 14
     586:	31 05       	cpc	r19, r1
     588:	48 f4       	brcc	.+18     	; 0x59c <__stack+0x9d>
     58a:	e1 e4       	ldi	r30, 0x41	; 65
     58c:	f3 e0       	ldi	r31, 0x03	; 3
     58e:	13 82       	std	Z+3, r1	; 0x03
     590:	12 82       	std	Z+2, r1	; 0x02
     592:	89 ef       	ldi	r24, 0xF9	; 249
     594:	91 e0       	ldi	r25, 0x01	; 1
     596:	97 83       	std	Z+7, r25	; 0x07
     598:	86 83       	std	Z+6, r24	; 0x06
     59a:	4d c0       	rjmp	.+154    	; 0x636 <__stack+0x137>
     59c:	8c 39       	cpi	r24, 0x9C	; 156
     59e:	91 05       	cpc	r25, r1
     5a0:	f0 f4       	brcc	.+60     	; 0x5de <__stack+0xdf>
     5a2:	44 e6       	ldi	r20, 0x64	; 100
     5a4:	48 9f       	mul	r20, r24
     5a6:	90 01       	movw	r18, r0
     5a8:	49 9f       	mul	r20, r25
     5aa:	30 0d       	add	r19, r0
     5ac:	11 24       	eor	r1, r1
     5ae:	a3 eb       	ldi	r26, 0xB3	; 179
     5b0:	b2 e6       	ldi	r27, 0x62	; 98
     5b2:	0e 94 a7 07 	call	0xf4e	; 0xf4e <__umulhisi3>
     5b6:	00 24       	eor	r0, r0
     5b8:	88 0f       	add	r24, r24
     5ba:	99 1f       	adc	r25, r25
     5bc:	00 1c       	adc	r0, r0
     5be:	88 0f       	add	r24, r24
     5c0:	99 1f       	adc	r25, r25
     5c2:	00 1c       	adc	r0, r0
     5c4:	89 2f       	mov	r24, r25
     5c6:	90 2d       	mov	r25, r0
     5c8:	84 56       	subi	r24, 0x64	; 100
     5ca:	91 09       	sbc	r25, r1
     5cc:	e1 e4       	ldi	r30, 0x41	; 65
     5ce:	f3 e0       	ldi	r31, 0x03	; 3
     5d0:	93 83       	std	Z+3, r25	; 0x03
     5d2:	82 83       	std	Z+2, r24	; 0x02
     5d4:	80 e1       	ldi	r24, 0x10	; 16
     5d6:	92 e0       	ldi	r25, 0x02	; 2
     5d8:	97 83       	std	Z+7, r25	; 0x07
     5da:	86 83       	std	Z+6, r24	; 0x06
     5dc:	2c c0       	rjmp	.+88     	; 0x636 <__stack+0x137>
     5de:	9c 01       	movw	r18, r24
     5e0:	2a 5a       	subi	r18, 0xAA	; 170
     5e2:	31 09       	sbc	r19, r1
     5e4:	26 35       	cpi	r18, 0x56	; 86
     5e6:	31 05       	cpc	r19, r1
     5e8:	f0 f4       	brcc	.+60     	; 0x626 <__stack+0x127>
     5ea:	44 e6       	ldi	r20, 0x64	; 100
     5ec:	48 9f       	mul	r20, r24
     5ee:	90 01       	movw	r18, r0
     5f0:	49 9f       	mul	r20, r25
     5f2:	30 0d       	add	r19, r0
     5f4:	11 24       	eor	r1, r1
     5f6:	28 56       	subi	r18, 0x68	; 104
     5f8:	32 44       	sbci	r19, 0x42	; 66
     5fa:	a1 ec       	ldi	r26, 0xC1	; 193
     5fc:	b0 ec       	ldi	r27, 0xC0	; 192
     5fe:	0e 94 a7 07 	call	0xf4e	; 0xf4e <__umulhisi3>
     602:	00 24       	eor	r0, r0
     604:	88 0f       	add	r24, r24
     606:	99 1f       	adc	r25, r25
     608:	00 1c       	adc	r0, r0
     60a:	88 0f       	add	r24, r24
     60c:	99 1f       	adc	r25, r25
     60e:	00 1c       	adc	r0, r0
     610:	89 2f       	mov	r24, r25
     612:	90 2d       	mov	r25, r0
     614:	e1 e4       	ldi	r30, 0x41	; 65
     616:	f3 e0       	ldi	r31, 0x03	; 3
     618:	93 83       	std	Z+3, r25	; 0x03
     61a:	82 83       	std	Z+2, r24	; 0x02
     61c:	85 e1       	ldi	r24, 0x15	; 21
     61e:	92 e0       	ldi	r25, 0x02	; 2
     620:	97 83       	std	Z+7, r25	; 0x07
     622:	86 83       	std	Z+6, r24	; 0x06
     624:	08 c0       	rjmp	.+16     	; 0x636 <__stack+0x137>
     626:	e1 e4       	ldi	r30, 0x41	; 65
     628:	f3 e0       	ldi	r31, 0x03	; 3
     62a:	13 82       	std	Z+3, r1	; 0x03
     62c:	12 82       	std	Z+2, r1	; 0x02
     62e:	8c e0       	ldi	r24, 0x0C	; 12
     630:	92 e0       	ldi	r25, 0x02	; 2
     632:	97 83       	std	Z+7, r25	; 0x07
     634:	86 83       	std	Z+6, r24	; 0x06
     636:	88 e0       	ldi	r24, 0x08	; 8
     638:	e1 e4       	ldi	r30, 0x41	; 65
     63a:	f3 e0       	ldi	r31, 0x03	; 3
     63c:	de 01       	movw	r26, r28
     63e:	11 96       	adiw	r26, 0x01	; 1
     640:	01 90       	ld	r0, Z+
     642:	0d 92       	st	X+, r0
     644:	8a 95       	dec	r24
     646:	e1 f7       	brne	.-8      	; 0x640 <__stack+0x141>
     648:	29 81       	ldd	r18, Y+1	; 0x01
     64a:	3a 81       	ldd	r19, Y+2	; 0x02
     64c:	4b 81       	ldd	r20, Y+3	; 0x03
     64e:	5c 81       	ldd	r21, Y+4	; 0x04
     650:	6d 81       	ldd	r22, Y+5	; 0x05
     652:	7e 81       	ldd	r23, Y+6	; 0x06
     654:	8f 81       	ldd	r24, Y+7	; 0x07
     656:	98 85       	ldd	r25, Y+8	; 0x08
     658:	28 96       	adiw	r28, 0x08	; 8
     65a:	0f b6       	in	r0, 0x3f	; 63
     65c:	f8 94       	cli
     65e:	de bf       	out	0x3e, r29	; 62
     660:	0f be       	out	0x3f, r0	; 63
     662:	cd bf       	out	0x3d, r28	; 61
     664:	df 91       	pop	r29
     666:	cf 91       	pop	r28
     668:	1f 91       	pop	r17
     66a:	0f 91       	pop	r16
     66c:	08 95       	ret

0000066e <OLED_write_command>:
     66e:	80 93 00 10 	sts	0x1000, r24	; 0x801000 <__bss_end+0xca6>
     672:	08 95       	ret

00000674 <OLED_write_data>:
     674:	80 93 00 12 	sts	0x1200, r24	; 0x801200 <__bss_end+0xea6>
     678:	08 95       	ret

0000067a <OLED_init>:
     67a:	8e ea       	ldi	r24, 0xAE	; 174
     67c:	0e 94 37 03 	call	0x66e	; 0x66e <OLED_write_command>
     680:	81 ea       	ldi	r24, 0xA1	; 161
     682:	0e 94 37 03 	call	0x66e	; 0x66e <OLED_write_command>
     686:	8a ed       	ldi	r24, 0xDA	; 218
     688:	0e 94 37 03 	call	0x66e	; 0x66e <OLED_write_command>
     68c:	82 e1       	ldi	r24, 0x12	; 18
     68e:	0e 94 37 03 	call	0x66e	; 0x66e <OLED_write_command>
     692:	88 ec       	ldi	r24, 0xC8	; 200
     694:	0e 94 37 03 	call	0x66e	; 0x66e <OLED_write_command>
     698:	88 ea       	ldi	r24, 0xA8	; 168
     69a:	0e 94 37 03 	call	0x66e	; 0x66e <OLED_write_command>
     69e:	8f e3       	ldi	r24, 0x3F	; 63
     6a0:	0e 94 37 03 	call	0x66e	; 0x66e <OLED_write_command>
     6a4:	85 ed       	ldi	r24, 0xD5	; 213
     6a6:	0e 94 37 03 	call	0x66e	; 0x66e <OLED_write_command>
     6aa:	80 e8       	ldi	r24, 0x80	; 128
     6ac:	0e 94 37 03 	call	0x66e	; 0x66e <OLED_write_command>
     6b0:	81 e8       	ldi	r24, 0x81	; 129
     6b2:	0e 94 37 03 	call	0x66e	; 0x66e <OLED_write_command>
     6b6:	80 e5       	ldi	r24, 0x50	; 80
     6b8:	0e 94 37 03 	call	0x66e	; 0x66e <OLED_write_command>
     6bc:	89 ed       	ldi	r24, 0xD9	; 217
     6be:	0e 94 37 03 	call	0x66e	; 0x66e <OLED_write_command>
     6c2:	81 e2       	ldi	r24, 0x21	; 33
     6c4:	0e 94 37 03 	call	0x66e	; 0x66e <OLED_write_command>
     6c8:	80 e2       	ldi	r24, 0x20	; 32
     6ca:	0e 94 37 03 	call	0x66e	; 0x66e <OLED_write_command>
     6ce:	82 e0       	ldi	r24, 0x02	; 2
     6d0:	0e 94 37 03 	call	0x66e	; 0x66e <OLED_write_command>
     6d4:	8b ed       	ldi	r24, 0xDB	; 219
     6d6:	0e 94 37 03 	call	0x66e	; 0x66e <OLED_write_command>
     6da:	80 e3       	ldi	r24, 0x30	; 48
     6dc:	0e 94 37 03 	call	0x66e	; 0x66e <OLED_write_command>
     6e0:	8d ea       	ldi	r24, 0xAD	; 173
     6e2:	0e 94 37 03 	call	0x66e	; 0x66e <OLED_write_command>
     6e6:	80 e0       	ldi	r24, 0x00	; 0
     6e8:	0e 94 37 03 	call	0x66e	; 0x66e <OLED_write_command>
     6ec:	84 ea       	ldi	r24, 0xA4	; 164
     6ee:	0e 94 37 03 	call	0x66e	; 0x66e <OLED_write_command>
     6f2:	87 ea       	ldi	r24, 0xA7	; 167
     6f4:	0e 94 37 03 	call	0x66e	; 0x66e <OLED_write_command>
     6f8:	8f ea       	ldi	r24, 0xAF	; 175
     6fa:	0e 94 37 03 	call	0x66e	; 0x66e <OLED_write_command>
     6fe:	83 ed       	ldi	r24, 0xD3	; 211
     700:	0e 94 37 03 	call	0x66e	; 0x66e <OLED_write_command>
     704:	82 e0       	ldi	r24, 0x02	; 2
     706:	0e 94 37 03 	call	0x66e	; 0x66e <OLED_write_command>
     70a:	08 95       	ret

0000070c <OLED_goto_line>:
     70c:	88 30       	cpi	r24, 0x08	; 8
     70e:	18 f4       	brcc	.+6      	; 0x716 <OLED_goto_line+0xa>
     710:	80 55       	subi	r24, 0x50	; 80
     712:	0e 94 37 03 	call	0x66e	; 0x66e <OLED_write_command>
     716:	08 95       	ret

00000718 <OLED_goto_col>:
     718:	cf 93       	push	r28
     71a:	88 23       	and	r24, r24
     71c:	54 f0       	brlt	.+20     	; 0x732 <OLED_goto_col+0x1a>
     71e:	c8 2f       	mov	r28, r24
     720:	8f 70       	andi	r24, 0x0F	; 15
     722:	0e 94 37 03 	call	0x66e	; 0x66e <OLED_write_command>
     726:	8c 2f       	mov	r24, r28
     728:	82 95       	swap	r24
     72a:	8f 70       	andi	r24, 0x0F	; 15
     72c:	80 5f       	subi	r24, 0xF0	; 240
     72e:	0e 94 37 03 	call	0x66e	; 0x66e <OLED_write_command>
     732:	cf 91       	pop	r28
     734:	08 95       	ret

00000736 <OLED_goto_pos>:
     736:	cf 93       	push	r28
     738:	c6 2f       	mov	r28, r22
     73a:	0e 94 86 03 	call	0x70c	; 0x70c <OLED_goto_line>
     73e:	8c 2f       	mov	r24, r28
     740:	0e 94 8c 03 	call	0x718	; 0x718 <OLED_goto_col>
     744:	cf 91       	pop	r28
     746:	08 95       	ret

00000748 <OLED_clear>:
     748:	cf 93       	push	r28
     74a:	df 93       	push	r29
     74c:	d0 e0       	ldi	r29, 0x00	; 0
     74e:	0d c0       	rjmp	.+26     	; 0x76a <OLED_clear+0x22>
     750:	60 e0       	ldi	r22, 0x00	; 0
     752:	8d 2f       	mov	r24, r29
     754:	0e 94 9b 03 	call	0x736	; 0x736 <OLED_goto_pos>
     758:	c0 e0       	ldi	r28, 0x00	; 0
     75a:	04 c0       	rjmp	.+8      	; 0x764 <OLED_clear+0x1c>
     75c:	80 e0       	ldi	r24, 0x00	; 0
     75e:	0e 94 3a 03 	call	0x674	; 0x674 <OLED_write_data>
     762:	cf 5f       	subi	r28, 0xFF	; 255
     764:	cc 23       	and	r28, r28
     766:	d4 f7       	brge	.-12     	; 0x75c <OLED_clear+0x14>
     768:	df 5f       	subi	r29, 0xFF	; 255
     76a:	d8 30       	cpi	r29, 0x08	; 8
     76c:	88 f3       	brcs	.-30     	; 0x750 <OLED_clear+0x8>
     76e:	df 91       	pop	r29
     770:	cf 91       	pop	r28
     772:	08 95       	ret

00000774 <OLED_clear_arrow>:
     774:	cf 93       	push	r28
     776:	df 93       	push	r29
     778:	d2 e0       	ldi	r29, 0x02	; 2
     77a:	0d c0       	rjmp	.+26     	; 0x796 <OLED_clear_arrow+0x22>
     77c:	60 e0       	ldi	r22, 0x00	; 0
     77e:	8d 2f       	mov	r24, r29
     780:	0e 94 9b 03 	call	0x736	; 0x736 <OLED_goto_pos>
     784:	c0 e0       	ldi	r28, 0x00	; 0
     786:	04 c0       	rjmp	.+8      	; 0x790 <OLED_clear_arrow+0x1c>
     788:	80 e0       	ldi	r24, 0x00	; 0
     78a:	0e 94 3a 03 	call	0x674	; 0x674 <OLED_write_data>
     78e:	cf 5f       	subi	r28, 0xFF	; 255
     790:	c5 31       	cpi	r28, 0x15	; 21
     792:	d0 f3       	brcs	.-12     	; 0x788 <OLED_clear_arrow+0x14>
     794:	df 5f       	subi	r29, 0xFF	; 255
     796:	d6 30       	cpi	r29, 0x06	; 6
     798:	88 f3       	brcs	.-30     	; 0x77c <OLED_clear_arrow+0x8>
     79a:	df 91       	pop	r29
     79c:	cf 91       	pop	r28
     79e:	08 95       	ret

000007a0 <OLED_print_arrow>:
     7a0:	0e 94 9b 03 	call	0x736	; 0x736 <OLED_goto_pos>
     7a4:	88 e1       	ldi	r24, 0x18	; 24
     7a6:	0e 94 3a 03 	call	0x674	; 0x674 <OLED_write_data>
     7aa:	88 e1       	ldi	r24, 0x18	; 24
     7ac:	0e 94 3a 03 	call	0x674	; 0x674 <OLED_write_data>
     7b0:	8e e7       	ldi	r24, 0x7E	; 126
     7b2:	0e 94 3a 03 	call	0x674	; 0x674 <OLED_write_data>
     7b6:	8c e3       	ldi	r24, 0x3C	; 60
     7b8:	0e 94 3a 03 	call	0x674	; 0x674 <OLED_write_data>
     7bc:	88 e1       	ldi	r24, 0x18	; 24
     7be:	0e 94 3a 03 	call	0x674	; 0x674 <OLED_write_data>
     7c2:	08 95       	ret

000007c4 <OLED_print_char>:
     7c4:	cf 93       	push	r28
     7c6:	df 93       	push	r29
     7c8:	d8 2f       	mov	r29, r24
     7ca:	c0 e0       	ldi	r28, 0x00	; 0
     7cc:	11 c0       	rjmp	.+34     	; 0x7f0 <OLED_print_char+0x2c>
     7ce:	ed 2f       	mov	r30, r29
     7d0:	f0 e0       	ldi	r31, 0x00	; 0
     7d2:	b0 97       	sbiw	r30, 0x20	; 32
     7d4:	ee 0f       	add	r30, r30
     7d6:	ff 1f       	adc	r31, r31
     7d8:	ee 0f       	add	r30, r30
     7da:	ff 1f       	adc	r31, r31
     7dc:	ee 0f       	add	r30, r30
     7de:	ff 1f       	adc	r31, r31
     7e0:	ec 0f       	add	r30, r28
     7e2:	f1 1d       	adc	r31, r1
     7e4:	e0 59       	subi	r30, 0x90	; 144
     7e6:	ff 4f       	sbci	r31, 0xFF	; 255
     7e8:	84 91       	lpm	r24, Z
     7ea:	0e 94 3a 03 	call	0x674	; 0x674 <OLED_write_data>
     7ee:	cf 5f       	subi	r28, 0xFF	; 255
     7f0:	c8 30       	cpi	r28, 0x08	; 8
     7f2:	68 f3       	brcs	.-38     	; 0x7ce <OLED_print_char+0xa>
     7f4:	df 91       	pop	r29
     7f6:	cf 91       	pop	r28
     7f8:	08 95       	ret

000007fa <OLED_print_string>:
     7fa:	0f 93       	push	r16
     7fc:	1f 93       	push	r17
     7fe:	cf 93       	push	r28
     800:	8c 01       	movw	r16, r24
     802:	c0 e0       	ldi	r28, 0x00	; 0
     804:	03 c0       	rjmp	.+6      	; 0x80c <OLED_print_string+0x12>
     806:	0e 94 e2 03 	call	0x7c4	; 0x7c4 <OLED_print_char>
     80a:	cf 5f       	subi	r28, 0xFF	; 255
     80c:	f8 01       	movw	r30, r16
     80e:	ec 0f       	add	r30, r28
     810:	f1 1d       	adc	r31, r1
     812:	80 81       	ld	r24, Z
     814:	81 11       	cpse	r24, r1
     816:	f7 cf       	rjmp	.-18     	; 0x806 <OLED_print_string+0xc>
     818:	cf 91       	pop	r28
     81a:	1f 91       	pop	r17
     81c:	0f 91       	pop	r16
     81e:	08 95       	ret

00000820 <f_play>:
     820:	0e 94 a4 03 	call	0x748	; 0x748 <OLED_clear>
     824:	60 e2       	ldi	r22, 0x20	; 32
     826:	83 e0       	ldi	r24, 0x03	; 3
     828:	0e 94 9b 03 	call	0x736	; 0x736 <OLED_goto_pos>
     82c:	88 e1       	ldi	r24, 0x18	; 24
     82e:	92 e0       	ldi	r25, 0x02	; 2
     830:	0e 94 fd 03 	call	0x7fa	; 0x7fa <OLED_print_string>
     834:	08 95       	ret

00000836 <f_sr_highscore>:
     836:	0e 94 a4 03 	call	0x748	; 0x748 <OLED_clear>
     83a:	60 e2       	ldi	r22, 0x20	; 32
     83c:	83 e0       	ldi	r24, 0x03	; 3
     83e:	0e 94 9b 03 	call	0x736	; 0x736 <OLED_goto_pos>
     842:	8d e1       	ldi	r24, 0x1D	; 29
     844:	92 e0       	ldi	r25, 0x02	; 2
     846:	0e 94 fd 03 	call	0x7fa	; 0x7fa <OLED_print_string>
     84a:	08 95       	ret

0000084c <f_calibrate>:
     84c:	0e 94 a4 03 	call	0x748	; 0x748 <OLED_clear>
     850:	60 e2       	ldi	r22, 0x20	; 32
     852:	83 e0       	ldi	r24, 0x03	; 3
     854:	0e 94 9b 03 	call	0x736	; 0x736 <OLED_goto_pos>
     858:	87 e2       	ldi	r24, 0x27	; 39
     85a:	92 e0       	ldi	r25, 0x02	; 2
     85c:	0e 94 fd 03 	call	0x7fa	; 0x7fa <OLED_print_string>
     860:	08 95       	ret

00000862 <f_set_diff>:
     862:	0e 94 a4 03 	call	0x748	; 0x748 <OLED_clear>
     866:	60 e2       	ldi	r22, 0x20	; 32
     868:	83 e0       	ldi	r24, 0x03	; 3
     86a:	0e 94 9b 03 	call	0x736	; 0x736 <OLED_goto_pos>
     86e:	81 e3       	ldi	r24, 0x31	; 49
     870:	92 e0       	ldi	r25, 0x02	; 2
     872:	0e 94 fd 03 	call	0x7fa	; 0x7fa <OLED_print_string>
     876:	08 95       	ret

00000878 <f_quit>:
     878:	0e 94 a4 03 	call	0x748	; 0x748 <OLED_clear>
     87c:	60 e2       	ldi	r22, 0x20	; 32
     87e:	83 e0       	ldi	r24, 0x03	; 3
     880:	0e 94 9b 03 	call	0x736	; 0x736 <OLED_goto_pos>
     884:	8a e3       	ldi	r24, 0x3A	; 58
     886:	92 e0       	ldi	r25, 0x02	; 2
     888:	0e 94 fd 03 	call	0x7fa	; 0x7fa <OLED_print_string>
     88c:	08 95       	ret

0000088e <new_node>:
     88e:	0f 93       	push	r16
     890:	1f 93       	push	r17
     892:	cf 93       	push	r28
     894:	df 93       	push	r29
     896:	8c 01       	movw	r16, r24
     898:	eb 01       	movw	r28, r22
     89a:	81 e1       	ldi	r24, 0x11	; 17
     89c:	90 e0       	ldi	r25, 0x00	; 0
     89e:	0e 94 b6 07 	call	0xf6c	; 0xf6c <malloc>
     8a2:	fc 01       	movw	r30, r24
     8a4:	11 83       	std	Z+1, r17	; 0x01
     8a6:	00 83       	st	Z, r16
     8a8:	d3 83       	std	Z+3, r29	; 0x03
     8aa:	c2 83       	std	Z+2, r28	; 0x02
     8ac:	20 e0       	ldi	r18, 0x00	; 0
     8ae:	30 e0       	ldi	r19, 0x00	; 0
     8b0:	0a c0       	rjmp	.+20     	; 0x8c6 <new_node+0x38>
     8b2:	f9 01       	movw	r30, r18
     8b4:	32 96       	adiw	r30, 0x02	; 2
     8b6:	ee 0f       	add	r30, r30
     8b8:	ff 1f       	adc	r31, r31
     8ba:	e8 0f       	add	r30, r24
     8bc:	f9 1f       	adc	r31, r25
     8be:	11 82       	std	Z+1, r1	; 0x01
     8c0:	10 82       	st	Z, r1
     8c2:	2f 5f       	subi	r18, 0xFF	; 255
     8c4:	3f 4f       	sbci	r19, 0xFF	; 255
     8c6:	25 30       	cpi	r18, 0x05	; 5
     8c8:	31 05       	cpc	r19, r1
     8ca:	9c f3       	brlt	.-26     	; 0x8b2 <new_node+0x24>
     8cc:	fc 01       	movw	r30, r24
     8ce:	10 8a       	std	Z+16, r1	; 0x10
     8d0:	df 91       	pop	r29
     8d2:	cf 91       	pop	r28
     8d4:	1f 91       	pop	r17
     8d6:	0f 91       	pop	r16
     8d8:	08 95       	ret

000008da <set_current_node>:
     8da:	90 93 3c 03 	sts	0x033C, r25	; 0x80033c <curr_mode+0x1>
     8de:	80 93 3b 03 	sts	0x033B, r24	; 0x80033b <curr_mode>
     8e2:	08 95       	ret

000008e4 <get_current_node>:
     8e4:	80 91 3b 03 	lds	r24, 0x033B	; 0x80033b <curr_mode>
     8e8:	90 91 3c 03 	lds	r25, 0x033C	; 0x80033c <curr_mode+0x1>
     8ec:	08 95       	ret

000008ee <set_child>:
     8ee:	24 2f       	mov	r18, r20
     8f0:	30 e0       	ldi	r19, 0x00	; 0
     8f2:	2e 5f       	subi	r18, 0xFE	; 254
     8f4:	3f 4f       	sbci	r19, 0xFF	; 255
     8f6:	22 0f       	add	r18, r18
     8f8:	33 1f       	adc	r19, r19
     8fa:	82 0f       	add	r24, r18
     8fc:	93 1f       	adc	r25, r19
     8fe:	fc 01       	movw	r30, r24
     900:	71 83       	std	Z+1, r23	; 0x01
     902:	60 83       	st	Z, r22
     904:	fb 01       	movw	r30, r22
     906:	40 8b       	std	Z+16, r20	; 0x10
     908:	08 95       	ret

0000090a <set_fun>:
     90a:	fc 01       	movw	r30, r24
     90c:	77 87       	std	Z+15, r23	; 0x0f
     90e:	66 87       	std	Z+14, r22	; 0x0e
     910:	08 95       	ret

00000912 <move_arrow>:
     912:	81 11       	cpse	r24, r1
     914:	07 c0       	rjmp	.+14     	; 0x924 <move_arrow+0x12>
     916:	0e 94 ba 03 	call	0x774	; 0x774 <OLED_clear_arrow>
     91a:	6f e0       	ldi	r22, 0x0F	; 15
     91c:	85 e0       	ldi	r24, 0x05	; 5
     91e:	0e 94 d0 03 	call	0x7a0	; 0x7a0 <OLED_print_arrow>
     922:	08 95       	ret
     924:	81 30       	cpi	r24, 0x01	; 1
     926:	31 f4       	brne	.+12     	; 0x934 <move_arrow+0x22>
     928:	0e 94 ba 03 	call	0x774	; 0x774 <OLED_clear_arrow>
     92c:	6f e0       	ldi	r22, 0x0F	; 15
     92e:	83 e0       	ldi	r24, 0x03	; 3
     930:	0e 94 d0 03 	call	0x7a0	; 0x7a0 <OLED_print_arrow>
     934:	08 95       	ret

00000936 <GUI_main_menu>:
     936:	cf 93       	push	r28
     938:	df 93       	push	r29
     93a:	d8 2f       	mov	r29, r24
     93c:	c6 2f       	mov	r28, r22
     93e:	80 91 4b 03 	lds	r24, 0x034B	; 0x80034b <main_menu>
     942:	90 91 4c 03 	lds	r25, 0x034C	; 0x80034c <main_menu+0x1>
     946:	0e 94 6d 04 	call	0x8da	; 0x8da <set_current_node>
     94a:	0e 94 a4 03 	call	0x748	; 0x748 <OLED_clear>
     94e:	68 e0       	ldi	r22, 0x08	; 8
     950:	81 e0       	ldi	r24, 0x01	; 1
     952:	0e 94 9b 03 	call	0x736	; 0x736 <OLED_goto_pos>
     956:	82 e4       	ldi	r24, 0x42	; 66
     958:	92 e0       	ldi	r25, 0x02	; 2
     95a:	0e 94 fd 03 	call	0x7fa	; 0x7fa <OLED_print_string>
     95e:	c1 11       	cpse	r28, r1
     960:	04 c0       	rjmp	.+8      	; 0x96a <GUI_main_menu+0x34>
     962:	c0 91 36 03 	lds	r28, 0x0336	; 0x800336 <__data_end>
     966:	c1 70       	andi	r28, 0x01	; 1
     968:	05 c0       	rjmp	.+10     	; 0x974 <GUI_main_menu+0x3e>
     96a:	c0 91 36 03 	lds	r28, 0x0336	; 0x800336 <__data_end>
     96e:	81 e0       	ldi	r24, 0x01	; 1
     970:	c8 27       	eor	r28, r24
     972:	c1 70       	andi	r28, 0x01	; 1
     974:	d2 30       	cpi	r29, 0x02	; 2
     976:	61 f4       	brne	.+24     	; 0x990 <GUI_main_menu+0x5a>
     978:	60 e2       	ldi	r22, 0x20	; 32
     97a:	83 e0       	ldi	r24, 0x03	; 3
     97c:	0e 94 9b 03 	call	0x736	; 0x736 <OLED_goto_pos>
     980:	81 e5       	ldi	r24, 0x51	; 81
     982:	92 e0       	ldi	r25, 0x02	; 2
     984:	0e 94 fd 03 	call	0x7fa	; 0x7fa <OLED_print_string>
     988:	8c 2f       	mov	r24, r28
     98a:	0e 94 89 04 	call	0x912	; 0x912 <move_arrow>
     98e:	29 c0       	rjmp	.+82     	; 0x9e2 <GUI_main_menu+0xac>
     990:	d1 30       	cpi	r29, 0x01	; 1
     992:	a1 f4       	brne	.+40     	; 0x9bc <GUI_main_menu+0x86>
     994:	60 e2       	ldi	r22, 0x20	; 32
     996:	83 e0       	ldi	r24, 0x03	; 3
     998:	0e 94 9b 03 	call	0x736	; 0x736 <OLED_goto_pos>
     99c:	86 e5       	ldi	r24, 0x56	; 86
     99e:	92 e0       	ldi	r25, 0x02	; 2
     9a0:	0e 94 fd 03 	call	0x7fa	; 0x7fa <OLED_print_string>
     9a4:	60 e2       	ldi	r22, 0x20	; 32
     9a6:	85 e0       	ldi	r24, 0x05	; 5
     9a8:	0e 94 9b 03 	call	0x736	; 0x736 <OLED_goto_pos>
     9ac:	80 e6       	ldi	r24, 0x60	; 96
     9ae:	92 e0       	ldi	r25, 0x02	; 2
     9b0:	0e 94 fd 03 	call	0x7fa	; 0x7fa <OLED_print_string>
     9b4:	8c 2f       	mov	r24, r28
     9b6:	0e 94 89 04 	call	0x912	; 0x912 <move_arrow>
     9ba:	13 c0       	rjmp	.+38     	; 0x9e2 <GUI_main_menu+0xac>
     9bc:	60 e2       	ldi	r22, 0x20	; 32
     9be:	83 e0       	ldi	r24, 0x03	; 3
     9c0:	0e 94 9b 03 	call	0x736	; 0x736 <OLED_goto_pos>
     9c4:	88 e1       	ldi	r24, 0x18	; 24
     9c6:	92 e0       	ldi	r25, 0x02	; 2
     9c8:	0e 94 fd 03 	call	0x7fa	; 0x7fa <OLED_print_string>
     9cc:	60 e2       	ldi	r22, 0x20	; 32
     9ce:	85 e0       	ldi	r24, 0x05	; 5
     9d0:	0e 94 9b 03 	call	0x736	; 0x736 <OLED_goto_pos>
     9d4:	8f e6       	ldi	r24, 0x6F	; 111
     9d6:	92 e0       	ldi	r25, 0x02	; 2
     9d8:	0e 94 fd 03 	call	0x7fa	; 0x7fa <OLED_print_string>
     9dc:	8c 2f       	mov	r24, r28
     9de:	0e 94 89 04 	call	0x912	; 0x912 <move_arrow>
     9e2:	df 91       	pop	r29
     9e4:	cf 91       	pop	r28
     9e6:	08 95       	ret

000009e8 <GUI_init>:
     9e8:	0e 94 a4 03 	call	0x748	; 0x748 <OLED_clear>
     9ec:	68 e0       	ldi	r22, 0x08	; 8
     9ee:	81 e0       	ldi	r24, 0x01	; 1
     9f0:	0e 94 9b 03 	call	0x736	; 0x736 <OLED_goto_pos>
     9f4:	82 e4       	ldi	r24, 0x42	; 66
     9f6:	92 e0       	ldi	r25, 0x02	; 2
     9f8:	0e 94 fd 03 	call	0x7fa	; 0x7fa <OLED_print_string>
     9fc:	60 e2       	ldi	r22, 0x20	; 32
     9fe:	83 e0       	ldi	r24, 0x03	; 3
     a00:	0e 94 9b 03 	call	0x736	; 0x736 <OLED_goto_pos>
     a04:	88 e1       	ldi	r24, 0x18	; 24
     a06:	92 e0       	ldi	r25, 0x02	; 2
     a08:	0e 94 fd 03 	call	0x7fa	; 0x7fa <OLED_print_string>
     a0c:	60 e2       	ldi	r22, 0x20	; 32
     a0e:	85 e0       	ldi	r24, 0x05	; 5
     a10:	0e 94 9b 03 	call	0x736	; 0x736 <OLED_goto_pos>
     a14:	8f e6       	ldi	r24, 0x6F	; 111
     a16:	92 e0       	ldi	r25, 0x02	; 2
     a18:	0e 94 fd 03 	call	0x7fa	; 0x7fa <OLED_print_string>
     a1c:	08 95       	ret

00000a1e <GUI_menu_init>:
     a1e:	60 e0       	ldi	r22, 0x00	; 0
     a20:	70 e0       	ldi	r23, 0x00	; 0
     a22:	8c e7       	ldi	r24, 0x7C	; 124
     a24:	92 e0       	ldi	r25, 0x02	; 2
     a26:	0e 94 47 04 	call	0x88e	; 0x88e <new_node>
     a2a:	90 93 4c 03 	sts	0x034C, r25	; 0x80034c <main_menu+0x1>
     a2e:	80 93 4b 03 	sts	0x034B, r24	; 0x80034b <main_menu>
     a32:	90 93 3c 03 	sts	0x033C, r25	; 0x80033c <curr_mode+0x1>
     a36:	80 93 3b 03 	sts	0x033B, r24	; 0x80033b <curr_mode>
     a3a:	bc 01       	movw	r22, r24
     a3c:	88 e1       	ldi	r24, 0x18	; 24
     a3e:	92 e0       	ldi	r25, 0x02	; 2
     a40:	0e 94 47 04 	call	0x88e	; 0x88e <new_node>
     a44:	90 93 40 03 	sts	0x0340, r25	; 0x800340 <play+0x1>
     a48:	80 93 3f 03 	sts	0x033F, r24	; 0x80033f <play>
     a4c:	60 91 4b 03 	lds	r22, 0x034B	; 0x80034b <main_menu>
     a50:	70 91 4c 03 	lds	r23, 0x034C	; 0x80034c <main_menu+0x1>
     a54:	86 e8       	ldi	r24, 0x86	; 134
     a56:	92 e0       	ldi	r25, 0x02	; 2
     a58:	0e 94 47 04 	call	0x88e	; 0x88e <new_node>
     a5c:	90 93 3e 03 	sts	0x033E, r25	; 0x80033e <sr_highscore+0x1>
     a60:	80 93 3d 03 	sts	0x033D, r24	; 0x80033d <sr_highscore>
     a64:	60 91 4b 03 	lds	r22, 0x034B	; 0x80034b <main_menu>
     a68:	70 91 4c 03 	lds	r23, 0x034C	; 0x80034c <main_menu+0x1>
     a6c:	86 e5       	ldi	r24, 0x56	; 86
     a6e:	92 e0       	ldi	r25, 0x02	; 2
     a70:	0e 94 47 04 	call	0x88e	; 0x88e <new_node>
     a74:	90 93 4a 03 	sts	0x034A, r25	; 0x80034a <calibrate+0x1>
     a78:	80 93 49 03 	sts	0x0349, r24	; 0x800349 <calibrate>
     a7c:	60 91 4b 03 	lds	r22, 0x034B	; 0x80034b <main_menu>
     a80:	70 91 4c 03 	lds	r23, 0x034C	; 0x80034c <main_menu+0x1>
     a84:	8a e9       	ldi	r24, 0x9A	; 154
     a86:	92 e0       	ldi	r25, 0x02	; 2
     a88:	0e 94 47 04 	call	0x88e	; 0x88e <new_node>
     a8c:	90 93 4e 03 	sts	0x034E, r25	; 0x80034e <set_diff+0x1>
     a90:	80 93 4d 03 	sts	0x034D, r24	; 0x80034d <set_diff>
     a94:	60 91 4b 03 	lds	r22, 0x034B	; 0x80034b <main_menu>
     a98:	70 91 4c 03 	lds	r23, 0x034C	; 0x80034c <main_menu+0x1>
     a9c:	81 e5       	ldi	r24, 0x51	; 81
     a9e:	92 e0       	ldi	r25, 0x02	; 2
     aa0:	0e 94 47 04 	call	0x88e	; 0x88e <new_node>
     aa4:	90 93 3a 03 	sts	0x033A, r25	; 0x80033a <quit+0x1>
     aa8:	80 93 39 03 	sts	0x0339, r24	; 0x800339 <quit>
     aac:	60 91 3f 03 	lds	r22, 0x033F	; 0x80033f <play>
     ab0:	70 91 40 03 	lds	r23, 0x0340	; 0x800340 <play+0x1>
     ab4:	40 e0       	ldi	r20, 0x00	; 0
     ab6:	80 91 4b 03 	lds	r24, 0x034B	; 0x80034b <main_menu>
     aba:	90 91 4c 03 	lds	r25, 0x034C	; 0x80034c <main_menu+0x1>
     abe:	0e 94 77 04 	call	0x8ee	; 0x8ee <set_child>
     ac2:	60 91 3d 03 	lds	r22, 0x033D	; 0x80033d <sr_highscore>
     ac6:	70 91 3e 03 	lds	r23, 0x033E	; 0x80033e <sr_highscore+0x1>
     aca:	41 e0       	ldi	r20, 0x01	; 1
     acc:	80 91 4b 03 	lds	r24, 0x034B	; 0x80034b <main_menu>
     ad0:	90 91 4c 03 	lds	r25, 0x034C	; 0x80034c <main_menu+0x1>
     ad4:	0e 94 77 04 	call	0x8ee	; 0x8ee <set_child>
     ad8:	60 91 49 03 	lds	r22, 0x0349	; 0x800349 <calibrate>
     adc:	70 91 4a 03 	lds	r23, 0x034A	; 0x80034a <calibrate+0x1>
     ae0:	42 e0       	ldi	r20, 0x02	; 2
     ae2:	80 91 4b 03 	lds	r24, 0x034B	; 0x80034b <main_menu>
     ae6:	90 91 4c 03 	lds	r25, 0x034C	; 0x80034c <main_menu+0x1>
     aea:	0e 94 77 04 	call	0x8ee	; 0x8ee <set_child>
     aee:	60 91 4d 03 	lds	r22, 0x034D	; 0x80034d <set_diff>
     af2:	70 91 4e 03 	lds	r23, 0x034E	; 0x80034e <set_diff+0x1>
     af6:	43 e0       	ldi	r20, 0x03	; 3
     af8:	80 91 4b 03 	lds	r24, 0x034B	; 0x80034b <main_menu>
     afc:	90 91 4c 03 	lds	r25, 0x034C	; 0x80034c <main_menu+0x1>
     b00:	0e 94 77 04 	call	0x8ee	; 0x8ee <set_child>
     b04:	60 91 39 03 	lds	r22, 0x0339	; 0x800339 <quit>
     b08:	70 91 3a 03 	lds	r23, 0x033A	; 0x80033a <quit+0x1>
     b0c:	44 e0       	ldi	r20, 0x04	; 4
     b0e:	80 91 4b 03 	lds	r24, 0x034B	; 0x80034b <main_menu>
     b12:	90 91 4c 03 	lds	r25, 0x034C	; 0x80034c <main_menu+0x1>
     b16:	0e 94 77 04 	call	0x8ee	; 0x8ee <set_child>
     b1a:	6b e9       	ldi	r22, 0x9B	; 155
     b1c:	74 e0       	ldi	r23, 0x04	; 4
     b1e:	80 91 4b 03 	lds	r24, 0x034B	; 0x80034b <main_menu>
     b22:	90 91 4c 03 	lds	r25, 0x034C	; 0x80034c <main_menu+0x1>
     b26:	0e 94 85 04 	call	0x90a	; 0x90a <set_fun>
     b2a:	60 e1       	ldi	r22, 0x10	; 16
     b2c:	74 e0       	ldi	r23, 0x04	; 4
     b2e:	80 91 3f 03 	lds	r24, 0x033F	; 0x80033f <play>
     b32:	90 91 40 03 	lds	r25, 0x0340	; 0x800340 <play+0x1>
     b36:	0e 94 85 04 	call	0x90a	; 0x90a <set_fun>
     b3a:	6b e1       	ldi	r22, 0x1B	; 27
     b3c:	74 e0       	ldi	r23, 0x04	; 4
     b3e:	80 91 3d 03 	lds	r24, 0x033D	; 0x80033d <sr_highscore>
     b42:	90 91 3e 03 	lds	r25, 0x033E	; 0x80033e <sr_highscore+0x1>
     b46:	0e 94 85 04 	call	0x90a	; 0x90a <set_fun>
     b4a:	66 e2       	ldi	r22, 0x26	; 38
     b4c:	74 e0       	ldi	r23, 0x04	; 4
     b4e:	80 91 49 03 	lds	r24, 0x0349	; 0x800349 <calibrate>
     b52:	90 91 4a 03 	lds	r25, 0x034A	; 0x80034a <calibrate+0x1>
     b56:	0e 94 85 04 	call	0x90a	; 0x90a <set_fun>
     b5a:	61 e3       	ldi	r22, 0x31	; 49
     b5c:	74 e0       	ldi	r23, 0x04	; 4
     b5e:	80 91 4d 03 	lds	r24, 0x034D	; 0x80034d <set_diff>
     b62:	90 91 4e 03 	lds	r25, 0x034E	; 0x80034e <set_diff+0x1>
     b66:	0e 94 85 04 	call	0x90a	; 0x90a <set_fun>
     b6a:	6c e3       	ldi	r22, 0x3C	; 60
     b6c:	74 e0       	ldi	r23, 0x04	; 4
     b6e:	80 91 39 03 	lds	r24, 0x0339	; 0x800339 <quit>
     b72:	90 91 3a 03 	lds	r25, 0x033A	; 0x80033a <quit+0x1>
     b76:	0e 94 85 04 	call	0x90a	; 0x90a <set_fun>
     b7a:	0e 94 f4 04 	call	0x9e8	; 0x9e8 <GUI_init>
     b7e:	6f e0       	ldi	r22, 0x0F	; 15
     b80:	83 e0       	ldi	r24, 0x03	; 3
     b82:	0e 94 d0 03 	call	0x7a0	; 0x7a0 <OLED_print_arrow>
     b86:	08 95       	ret

00000b88 <menu_navigation>:
     b88:	0e 94 28 02 	call	0x450	; 0x450 <get_joypos>
     b8c:	e1 e4       	ldi	r30, 0x41	; 65
     b8e:	f3 e0       	ldi	r31, 0x03	; 3
     b90:	20 83       	st	Z, r18
     b92:	31 83       	std	Z+1, r19	; 0x01
     b94:	42 83       	std	Z+2, r20	; 0x02
     b96:	53 83       	std	Z+3, r21	; 0x03
     b98:	64 83       	std	Z+4, r22	; 0x04
     b9a:	75 83       	std	Z+5, r23	; 0x05
     b9c:	86 83       	std	Z+6, r24	; 0x06
     b9e:	97 83       	std	Z+7, r25	; 0x07
     ba0:	e0 91 3b 03 	lds	r30, 0x033B	; 0x80033b <curr_mode>
     ba4:	f0 91 3c 03 	lds	r31, 0x033C	; 0x80033c <curr_mode+0x1>
     ba8:	80 81       	ld	r24, Z
     baa:	91 81       	ldd	r25, Z+1	; 0x01
     bac:	8c 57       	subi	r24, 0x7C	; 124
     bae:	92 40       	sbci	r25, 0x02	; 2
     bb0:	09 f0       	breq	.+2      	; 0xbb4 <menu_navigation+0x2c>
     bb2:	54 c0       	rjmp	.+168    	; 0xc5c <menu_navigation+0xd4>
     bb4:	20 91 47 03 	lds	r18, 0x0347	; 0x800347 <joystick+0x6>
     bb8:	30 91 48 03 	lds	r19, 0x0348	; 0x800348 <joystick+0x7>
     bbc:	82 e0       	ldi	r24, 0x02	; 2
     bbe:	20 31       	cpi	r18, 0x10	; 16
     bc0:	38 07       	cpc	r19, r24
     bc2:	a9 f4       	brne	.+42     	; 0xbee <menu_navigation+0x66>
     bc4:	80 91 36 03 	lds	r24, 0x0336	; 0x800336 <__data_end>
     bc8:	84 30       	cpi	r24, 0x04	; 4
     bca:	88 f4       	brcc	.+34     	; 0xbee <menu_navigation+0x66>
     bcc:	80 fd       	sbrc	r24, 0
     bce:	04 c0       	rjmp	.+8      	; 0xbd8 <menu_navigation+0x50>
     bd0:	80 e0       	ldi	r24, 0x00	; 0
     bd2:	0e 94 89 04 	call	0x912	; 0x912 <move_arrow>
     bd6:	05 c0       	rjmp	.+10     	; 0xbe2 <menu_navigation+0x5a>
     bd8:	86 95       	lsr	r24
     bda:	60 e0       	ldi	r22, 0x00	; 0
     bdc:	8f 5f       	subi	r24, 0xFF	; 255
     bde:	0e 94 9b 04 	call	0x936	; 0x936 <GUI_main_menu>
     be2:	80 91 36 03 	lds	r24, 0x0336	; 0x800336 <__data_end>
     be6:	8f 5f       	subi	r24, 0xFF	; 255
     be8:	80 93 36 03 	sts	0x0336, r24	; 0x800336 <__data_end>
     bec:	17 c0       	rjmp	.+46     	; 0xc1c <menu_navigation+0x94>
     bee:	25 51       	subi	r18, 0x15	; 21
     bf0:	32 40       	sbci	r19, 0x02	; 2
     bf2:	a1 f4       	brne	.+40     	; 0xc1c <menu_navigation+0x94>
     bf4:	80 91 36 03 	lds	r24, 0x0336	; 0x800336 <__data_end>
     bf8:	88 23       	and	r24, r24
     bfa:	81 f0       	breq	.+32     	; 0xc1c <menu_navigation+0x94>
     bfc:	80 ff       	sbrs	r24, 0
     bfe:	04 c0       	rjmp	.+8      	; 0xc08 <menu_navigation+0x80>
     c00:	81 e0       	ldi	r24, 0x01	; 1
     c02:	0e 94 89 04 	call	0x912	; 0x912 <move_arrow>
     c06:	05 c0       	rjmp	.+10     	; 0xc12 <menu_navigation+0x8a>
     c08:	86 95       	lsr	r24
     c0a:	60 e0       	ldi	r22, 0x00	; 0
     c0c:	81 50       	subi	r24, 0x01	; 1
     c0e:	0e 94 9b 04 	call	0x936	; 0x936 <GUI_main_menu>
     c12:	80 91 36 03 	lds	r24, 0x0336	; 0x800336 <__data_end>
     c16:	81 50       	subi	r24, 0x01	; 1
     c18:	80 93 36 03 	sts	0x0336, r24	; 0x800336 <__data_end>
     c1c:	80 91 45 03 	lds	r24, 0x0345	; 0x800345 <joystick+0x4>
     c20:	90 91 46 03 	lds	r25, 0x0346	; 0x800346 <joystick+0x5>
     c24:	86 50       	subi	r24, 0x06	; 6
     c26:	92 40       	sbci	r25, 0x02	; 2
     c28:	a9 f5       	brne	.+106    	; 0xc94 <menu_navigation+0x10c>
     c2a:	0e 94 72 04 	call	0x8e4	; 0x8e4 <get_current_node>
     c2e:	20 91 36 03 	lds	r18, 0x0336	; 0x800336 <__data_end>
     c32:	30 e0       	ldi	r19, 0x00	; 0
     c34:	2e 5f       	subi	r18, 0xFE	; 254
     c36:	3f 4f       	sbci	r19, 0xFF	; 255
     c38:	22 0f       	add	r18, r18
     c3a:	33 1f       	adc	r19, r19
     c3c:	82 0f       	add	r24, r18
     c3e:	93 1f       	adc	r25, r19
     c40:	fc 01       	movw	r30, r24
     c42:	80 81       	ld	r24, Z
     c44:	91 81       	ldd	r25, Z+1	; 0x01
     c46:	0e 94 6d 04 	call	0x8da	; 0x8da <set_current_node>
     c4a:	0e 94 72 04 	call	0x8e4	; 0x8e4 <get_current_node>
     c4e:	dc 01       	movw	r26, r24
     c50:	1e 96       	adiw	r26, 0x0e	; 14
     c52:	ed 91       	ld	r30, X+
     c54:	fc 91       	ld	r31, X
     c56:	1f 97       	sbiw	r26, 0x0f	; 15
     c58:	09 95       	icall
     c5a:	1c c0       	rjmp	.+56     	; 0xc94 <menu_navigation+0x10c>
     c5c:	80 91 45 03 	lds	r24, 0x0345	; 0x800345 <joystick+0x4>
     c60:	90 91 46 03 	lds	r25, 0x0346	; 0x800346 <joystick+0x5>
     c64:	81 50       	subi	r24, 0x01	; 1
     c66:	92 40       	sbci	r25, 0x02	; 2
     c68:	a9 f4       	brne	.+42     	; 0xc94 <menu_navigation+0x10c>
     c6a:	0e 94 72 04 	call	0x8e4	; 0x8e4 <get_current_node>
     c6e:	fc 01       	movw	r30, r24
     c70:	82 81       	ldd	r24, Z+2	; 0x02
     c72:	93 81       	ldd	r25, Z+3	; 0x03
     c74:	0e 94 6d 04 	call	0x8da	; 0x8da <set_current_node>
     c78:	0e 94 72 04 	call	0x8e4	; 0x8e4 <get_current_node>
     c7c:	dc 01       	movw	r26, r24
     c7e:	1e 96       	adiw	r26, 0x0e	; 14
     c80:	ed 91       	ld	r30, X+
     c82:	fc 91       	ld	r31, X
     c84:	1f 97       	sbiw	r26, 0x0f	; 15
     c86:	80 91 36 03 	lds	r24, 0x0336	; 0x800336 <__data_end>
     c8a:	86 95       	lsr	r24
     c8c:	61 e0       	ldi	r22, 0x01	; 1
     c8e:	70 e0       	ldi	r23, 0x00	; 0
     c90:	90 e0       	ldi	r25, 0x00	; 0
     c92:	09 95       	icall
     c94:	bf e3       	ldi	r27, 0x3F	; 63
     c96:	ed e0       	ldi	r30, 0x0D	; 13
     c98:	f3 e0       	ldi	r31, 0x03	; 3
     c9a:	b1 50       	subi	r27, 0x01	; 1
     c9c:	e0 40       	sbci	r30, 0x00	; 0
     c9e:	f0 40       	sbci	r31, 0x00	; 0
     ca0:	e1 f7       	brne	.-8      	; 0xc9a <menu_navigation+0x112>
     ca2:	00 c0       	rjmp	.+0      	; 0xca4 <menu_navigation+0x11c>
     ca4:	00 00       	nop
     ca6:	08 95       	ret

00000ca8 <SPI_MasterInit>:
     ca8:	80 eb       	ldi	r24, 0xB0	; 176
     caa:	87 bb       	out	0x17, r24	; 23
     cac:	81 e5       	ldi	r24, 0x51	; 81
     cae:	8d b9       	out	0x0d, r24	; 13
     cb0:	08 95       	ret

00000cb2 <SPI_MasterTransmit>:
     cb2:	8f b9       	out	0x0f, r24	; 15
     cb4:	77 9b       	sbis	0x0e, 7	; 14
     cb6:	fe cf       	rjmp	.-4      	; 0xcb4 <SPI_MasterTransmit+0x2>
     cb8:	8f b1       	in	r24, 0x0f	; 15
     cba:	08 95       	ret

00000cbc <MCP2515_activate_slave>:
     cbc:	88 b3       	in	r24, 0x18	; 24
     cbe:	8f 7e       	andi	r24, 0xEF	; 239
     cc0:	88 bb       	out	0x18, r24	; 24
     cc2:	08 95       	ret

00000cc4 <MCP2515_deactivate_slave>:
     cc4:	88 b3       	in	r24, 0x18	; 24
     cc6:	80 61       	ori	r24, 0x10	; 16
     cc8:	88 bb       	out	0x18, r24	; 24
     cca:	08 95       	ret

00000ccc <MCP2515_reset>:
     ccc:	0e 94 5e 06 	call	0xcbc	; 0xcbc <MCP2515_activate_slave>
     cd0:	80 ec       	ldi	r24, 0xC0	; 192
     cd2:	0e 94 59 06 	call	0xcb2	; 0xcb2 <SPI_MasterTransmit>
     cd6:	0e 94 62 06 	call	0xcc4	; 0xcc4 <MCP2515_deactivate_slave>
     cda:	08 95       	ret

00000cdc <MCP2515_read>:
     cdc:	cf 93       	push	r28
     cde:	c8 2f       	mov	r28, r24
     ce0:	0e 94 5e 06 	call	0xcbc	; 0xcbc <MCP2515_activate_slave>
     ce4:	83 e0       	ldi	r24, 0x03	; 3
     ce6:	0e 94 59 06 	call	0xcb2	; 0xcb2 <SPI_MasterTransmit>
     cea:	8c 2f       	mov	r24, r28
     cec:	0e 94 59 06 	call	0xcb2	; 0xcb2 <SPI_MasterTransmit>
     cf0:	80 e0       	ldi	r24, 0x00	; 0
     cf2:	0e 94 59 06 	call	0xcb2	; 0xcb2 <SPI_MasterTransmit>
     cf6:	c8 2f       	mov	r28, r24
     cf8:	0e 94 62 06 	call	0xcc4	; 0xcc4 <MCP2515_deactivate_slave>
     cfc:	8c 2f       	mov	r24, r28
     cfe:	cf 91       	pop	r28
     d00:	08 95       	ret

00000d02 <MCP2515_write>:
     d02:	cf 93       	push	r28
     d04:	df 93       	push	r29
     d06:	d8 2f       	mov	r29, r24
     d08:	c6 2f       	mov	r28, r22
     d0a:	0e 94 5e 06 	call	0xcbc	; 0xcbc <MCP2515_activate_slave>
     d0e:	82 e0       	ldi	r24, 0x02	; 2
     d10:	0e 94 59 06 	call	0xcb2	; 0xcb2 <SPI_MasterTransmit>
     d14:	8d 2f       	mov	r24, r29
     d16:	0e 94 59 06 	call	0xcb2	; 0xcb2 <SPI_MasterTransmit>
     d1a:	8c 2f       	mov	r24, r28
     d1c:	0e 94 59 06 	call	0xcb2	; 0xcb2 <SPI_MasterTransmit>
     d20:	0e 94 62 06 	call	0xcc4	; 0xcc4 <MCP2515_deactivate_slave>
     d24:	df 91       	pop	r29
     d26:	cf 91       	pop	r28
     d28:	08 95       	ret

00000d2a <MCP2515_request_to_send>:
     d2a:	cf 93       	push	r28
     d2c:	c8 2f       	mov	r28, r24
     d2e:	0e 94 5e 06 	call	0xcbc	; 0xcbc <MCP2515_activate_slave>
     d32:	8c 2f       	mov	r24, r28
     d34:	0e 94 59 06 	call	0xcb2	; 0xcb2 <SPI_MasterTransmit>
     d38:	0e 94 62 06 	call	0xcc4	; 0xcc4 <MCP2515_deactivate_slave>
     d3c:	cf 91       	pop	r28
     d3e:	08 95       	ret

00000d40 <MCP2515_bit_modify>:
     d40:	1f 93       	push	r17
     d42:	cf 93       	push	r28
     d44:	df 93       	push	r29
     d46:	18 2f       	mov	r17, r24
     d48:	d6 2f       	mov	r29, r22
     d4a:	c4 2f       	mov	r28, r20
     d4c:	0e 94 5e 06 	call	0xcbc	; 0xcbc <MCP2515_activate_slave>
     d50:	85 e0       	ldi	r24, 0x05	; 5
     d52:	0e 94 59 06 	call	0xcb2	; 0xcb2 <SPI_MasterTransmit>
     d56:	81 2f       	mov	r24, r17
     d58:	0e 94 59 06 	call	0xcb2	; 0xcb2 <SPI_MasterTransmit>
     d5c:	8d 2f       	mov	r24, r29
     d5e:	0e 94 59 06 	call	0xcb2	; 0xcb2 <SPI_MasterTransmit>
     d62:	8c 2f       	mov	r24, r28
     d64:	0e 94 59 06 	call	0xcb2	; 0xcb2 <SPI_MasterTransmit>
     d68:	0e 94 62 06 	call	0xcc4	; 0xcc4 <MCP2515_deactivate_slave>
     d6c:	df 91       	pop	r29
     d6e:	cf 91       	pop	r28
     d70:	1f 91       	pop	r17
     d72:	08 95       	ret

00000d74 <MCP2515_init>:
     d74:	0e 94 54 06 	call	0xca8	; 0xca8 <SPI_MasterInit>
     d78:	0e 94 66 06 	call	0xccc	; 0xccc <MCP2515_reset>
     d7c:	40 e8       	ldi	r20, 0x80	; 128
     d7e:	60 ee       	ldi	r22, 0xE0	; 224
     d80:	8f e0       	ldi	r24, 0x0F	; 15
     d82:	0e 94 a0 06 	call	0xd40	; 0xd40 <MCP2515_bit_modify>
     d86:	8e e0       	ldi	r24, 0x0E	; 14
     d88:	0e 94 6e 06 	call	0xcdc	; 0xcdc <MCP2515_read>
     d8c:	80 7e       	andi	r24, 0xE0	; 224
     d8e:	80 38       	cpi	r24, 0x80	; 128
     d90:	31 f0       	breq	.+12     	; 0xd9e <MCP2515_init+0x2a>
     d92:	89 ea       	ldi	r24, 0xA9	; 169
     d94:	92 e0       	ldi	r25, 0x02	; 2
     d96:	0e 94 22 09 	call	0x1244	; 0x1244 <puts>
     d9a:	81 e0       	ldi	r24, 0x01	; 1
     d9c:	08 95       	ret
     d9e:	42 e0       	ldi	r20, 0x02	; 2
     da0:	6f ef       	ldi	r22, 0xFF	; 255
     da2:	8a e2       	ldi	r24, 0x2A	; 42
     da4:	0e 94 a0 06 	call	0xd40	; 0xd40 <MCP2515_bit_modify>
     da8:	41 eb       	ldi	r20, 0xB1	; 177
     daa:	6f ef       	ldi	r22, 0xFF	; 255
     dac:	89 e2       	ldi	r24, 0x29	; 41
     dae:	0e 94 a0 06 	call	0xd40	; 0xd40 <MCP2515_bit_modify>
     db2:	45 e0       	ldi	r20, 0x05	; 5
     db4:	6f ef       	ldi	r22, 0xFF	; 255
     db6:	88 e2       	ldi	r24, 0x28	; 40
     db8:	0e 94 a0 06 	call	0xd40	; 0xd40 <MCP2515_bit_modify>
     dbc:	40 e0       	ldi	r20, 0x00	; 0
     dbe:	60 ee       	ldi	r22, 0xE0	; 224
     dc0:	8f e0       	ldi	r24, 0x0F	; 15
     dc2:	0e 94 a0 06 	call	0xd40	; 0xd40 <MCP2515_bit_modify>
     dc6:	43 e0       	ldi	r20, 0x03	; 3
     dc8:	63 e0       	ldi	r22, 0x03	; 3
     dca:	8b e2       	ldi	r24, 0x2B	; 43
     dcc:	0e 94 a0 06 	call	0xd40	; 0xd40 <MCP2515_bit_modify>
     dd0:	80 e0       	ldi	r24, 0x00	; 0
     dd2:	08 95       	ret

00000dd4 <set_msg_id>:
     dd4:	fc 01       	movw	r30, r24
     dd6:	71 83       	std	Z+1, r23	; 0x01
     dd8:	60 83       	st	Z, r22
     dda:	08 95       	ret

00000ddc <set_msg_length>:
     ddc:	fc 01       	movw	r30, r24
     dde:	62 83       	std	Z+2, r22	; 0x02
     de0:	08 95       	ret

00000de2 <CAN_transmit>:
     de2:	cf 92       	push	r12
     de4:	df 92       	push	r13
     de6:	ef 92       	push	r14
     de8:	ff 92       	push	r15
     dea:	0f 93       	push	r16
     dec:	1f 93       	push	r17
     dee:	cf 93       	push	r28
     df0:	df 93       	push	r29
     df2:	7c 01       	movw	r14, r24
     df4:	fc 01       	movw	r30, r24
     df6:	80 81       	ld	r24, Z
     df8:	91 81       	ldd	r25, Z+1	; 0x01
     dfa:	c8 2f       	mov	r28, r24
     dfc:	c2 95       	swap	r28
     dfe:	cc 0f       	add	r28, r28
     e00:	c0 7e       	andi	r28, 0xE0	; 224
     e02:	9c 01       	movw	r18, r24
     e04:	36 95       	lsr	r19
     e06:	27 95       	ror	r18
     e08:	36 95       	lsr	r19
     e0a:	27 95       	ror	r18
     e0c:	36 95       	lsr	r19
     e0e:	27 95       	ror	r18
     e10:	12 81       	ldd	r17, Z+2	; 0x02
     e12:	66 23       	and	r22, r22
     e14:	71 f0       	breq	.+28     	; 0xe32 <CAN_transmit+0x50>
     e16:	61 30       	cpi	r22, 0x01	; 1
     e18:	c1 f4       	brne	.+48     	; 0xe4a <CAN_transmit+0x68>
     e1a:	0f 2e       	mov	r0, r31
     e1c:	f2 e8       	ldi	r31, 0x82	; 130
     e1e:	df 2e       	mov	r13, r31
     e20:	f0 2d       	mov	r31, r0
     e22:	06 e4       	ldi	r16, 0x46	; 70
     e24:	d5 e4       	ldi	r29, 0x45	; 69
     e26:	0f 2e       	mov	r0, r31
     e28:	f2 e4       	ldi	r31, 0x42	; 66
     e2a:	cf 2e       	mov	r12, r31
     e2c:	f0 2d       	mov	r31, r0
     e2e:	81 e4       	ldi	r24, 0x41	; 65
     e30:	17 c0       	rjmp	.+46     	; 0xe60 <CAN_transmit+0x7e>
     e32:	0f 2e       	mov	r0, r31
     e34:	f1 e8       	ldi	r31, 0x81	; 129
     e36:	df 2e       	mov	r13, r31
     e38:	f0 2d       	mov	r31, r0
     e3a:	06 e3       	ldi	r16, 0x36	; 54
     e3c:	d5 e3       	ldi	r29, 0x35	; 53
     e3e:	0f 2e       	mov	r0, r31
     e40:	f2 e3       	ldi	r31, 0x32	; 50
     e42:	cf 2e       	mov	r12, r31
     e44:	f0 2d       	mov	r31, r0
     e46:	81 e3       	ldi	r24, 0x31	; 49
     e48:	0b c0       	rjmp	.+22     	; 0xe60 <CAN_transmit+0x7e>
     e4a:	0f 2e       	mov	r0, r31
     e4c:	f4 e8       	ldi	r31, 0x84	; 132
     e4e:	df 2e       	mov	r13, r31
     e50:	f0 2d       	mov	r31, r0
     e52:	06 e5       	ldi	r16, 0x56	; 86
     e54:	d5 e5       	ldi	r29, 0x55	; 85
     e56:	0f 2e       	mov	r0, r31
     e58:	f2 e5       	ldi	r31, 0x52	; 82
     e5a:	cf 2e       	mov	r12, r31
     e5c:	f0 2d       	mov	r31, r0
     e5e:	81 e5       	ldi	r24, 0x51	; 81
     e60:	62 2f       	mov	r22, r18
     e62:	0e 94 81 06 	call	0xd02	; 0xd02 <MCP2515_write>
     e66:	6c 2f       	mov	r22, r28
     e68:	8c 2d       	mov	r24, r12
     e6a:	0e 94 81 06 	call	0xd02	; 0xd02 <MCP2515_write>
     e6e:	61 2f       	mov	r22, r17
     e70:	8d 2f       	mov	r24, r29
     e72:	0e 94 81 06 	call	0xd02	; 0xd02 <MCP2515_write>
     e76:	c0 e0       	ldi	r28, 0x00	; 0
     e78:	d0 e0       	ldi	r29, 0x00	; 0
     e7a:	09 c0       	rjmp	.+18     	; 0xe8e <CAN_transmit+0xac>
     e7c:	f7 01       	movw	r30, r14
     e7e:	ec 0f       	add	r30, r28
     e80:	fd 1f       	adc	r31, r29
     e82:	63 81       	ldd	r22, Z+3	; 0x03
     e84:	8c 2f       	mov	r24, r28
     e86:	80 0f       	add	r24, r16
     e88:	0e 94 81 06 	call	0xd02	; 0xd02 <MCP2515_write>
     e8c:	21 96       	adiw	r28, 0x01	; 1
     e8e:	81 2f       	mov	r24, r17
     e90:	90 e0       	ldi	r25, 0x00	; 0
     e92:	c8 17       	cp	r28, r24
     e94:	d9 07       	cpc	r29, r25
     e96:	94 f3       	brlt	.-28     	; 0xe7c <CAN_transmit+0x9a>
     e98:	8d 2d       	mov	r24, r13
     e9a:	0e 94 95 06 	call	0xd2a	; 0xd2a <MCP2515_request_to_send>
     e9e:	df 91       	pop	r29
     ea0:	cf 91       	pop	r28
     ea2:	1f 91       	pop	r17
     ea4:	0f 91       	pop	r16
     ea6:	ff 90       	pop	r15
     ea8:	ef 90       	pop	r14
     eaa:	df 90       	pop	r13
     eac:	cf 90       	pop	r12
     eae:	08 95       	ret

00000eb0 <main>:
#include "GUI.h"
#include "MCP2515_driver.h"
#include "CAN_controller.h"


int main(){
     eb0:	cf 93       	push	r28
     eb2:	df 93       	push	r29
     eb4:	cd b7       	in	r28, 0x3d	; 61
     eb6:	de b7       	in	r29, 0x3e	; 62
     eb8:	2b 97       	sbiw	r28, 0x0b	; 11
     eba:	0f b6       	in	r0, 0x3f	; 63
     ebc:	f8 94       	cli
     ebe:	de bf       	out	0x3e, r29	; 62
     ec0:	0f be       	out	0x3f, r0	; 63
     ec2:	cd bf       	out	0x3d, r28	; 61
	uart_init(9600);
     ec4:	80 e8       	ldi	r24, 0x80	; 128
     ec6:	95 e2       	ldi	r25, 0x25	; 37
     ec8:	0e 94 ef 01 	call	0x3de	; 0x3de <uart_init>
	stdout = &mystdout;
     ecc:	86 e0       	ldi	r24, 0x06	; 6
     ece:	91 e0       	ldi	r25, 0x01	; 1
     ed0:	90 93 57 03 	sts	0x0357, r25	; 0x800357 <__iob+0x3>
     ed4:	80 93 56 03 	sts	0x0356, r24	; 0x800356 <__iob+0x2>
	xmem_init();
     ed8:	0e 94 fd 01 	call	0x3fa	; 0x3fa <xmem_init>
	PWM_init();
     edc:	0e 94 0e 02 	call	0x41c	; 0x41c <PWM_init>
	OLED_init();
     ee0:	0e 94 3d 03 	call	0x67a	; 0x67a <OLED_init>
	OLED_clear();
     ee4:	0e 94 a4 03 	call	0x748	; 0x748 <OLED_clear>
	GUI_menu_init();
     ee8:	0e 94 0f 05 	call	0xa1e	; 0xa1e <GUI_menu_init>
	MCP2515_init();
     eec:	0e 94 ba 06 	call	0xd74	; 0xd74 <MCP2515_init>
	CAN_message message1, read_message1;
	set_msg_id(&message1, 1);
     ef0:	61 e0       	ldi	r22, 0x01	; 1
     ef2:	70 e0       	ldi	r23, 0x00	; 0
     ef4:	ce 01       	movw	r24, r28
     ef6:	01 96       	adiw	r24, 0x01	; 1
     ef8:	0e 94 ea 06 	call	0xdd4	; 0xdd4 <set_msg_id>
	set_msg_length(&message1,6);
     efc:	66 e0       	ldi	r22, 0x06	; 6
     efe:	ce 01       	movw	r24, r28
     f00:	01 96       	adiw	r24, 0x01	; 1
     f02:	0e 94 ee 06 	call	0xddc	; 0xddc <set_msg_length>


	while (1){
		menu_navigation();
     f06:	0e 94 c4 05 	call	0xb88	; 0xb88 <menu_navigation>
		for(int i=0; i<message1.length; i++){
     f0a:	80 e0       	ldi	r24, 0x00	; 0
     f0c:	90 e0       	ldi	r25, 0x00	; 0
     f0e:	0b c0       	rjmp	.+22     	; 0xf26 <main+0x76>
			message1.data[i] = 4*i;
     f10:	e4 e0       	ldi	r30, 0x04	; 4
     f12:	f0 e0       	ldi	r31, 0x00	; 0
     f14:	ec 0f       	add	r30, r28
     f16:	fd 1f       	adc	r31, r29
     f18:	e8 0f       	add	r30, r24
     f1a:	f9 1f       	adc	r31, r25
     f1c:	28 2f       	mov	r18, r24
     f1e:	22 0f       	add	r18, r18
     f20:	22 0f       	add	r18, r18
     f22:	20 83       	st	Z, r18
	set_msg_length(&message1,6);


	while (1){
		menu_navigation();
		for(int i=0; i<message1.length; i++){
     f24:	01 96       	adiw	r24, 0x01	; 1
     f26:	2b 81       	ldd	r18, Y+3	; 0x03
     f28:	30 e0       	ldi	r19, 0x00	; 0
     f2a:	82 17       	cp	r24, r18
     f2c:	93 07       	cpc	r25, r19
     f2e:	84 f3       	brlt	.-32     	; 0xf10 <main+0x60>
			message1.data[i] = 4*i;
		}
		CAN_transmit(&message1, 0);
     f30:	60 e0       	ldi	r22, 0x00	; 0
     f32:	ce 01       	movw	r24, r28
     f34:	01 96       	adiw	r24, 0x01	; 1
     f36:	0e 94 f1 06 	call	0xde2	; 0xde2 <CAN_transmit>
	#else
		//round up by default
		__ticks_dc = (uint32_t)(ceil(fabs(__tmp)));
	#endif

	__builtin_avr_delay_cycles(__ticks_dc);
     f3a:	2f e3       	ldi	r18, 0x3F	; 63
     f3c:	8d e0       	ldi	r24, 0x0D	; 13
     f3e:	93 e0       	ldi	r25, 0x03	; 3
     f40:	21 50       	subi	r18, 0x01	; 1
     f42:	80 40       	sbci	r24, 0x00	; 0
     f44:	90 40       	sbci	r25, 0x00	; 0
     f46:	e1 f7       	brne	.-8      	; 0xf40 <main+0x90>
     f48:	00 c0       	rjmp	.+0      	; 0xf4a <main+0x9a>
     f4a:	00 00       	nop
     f4c:	dc cf       	rjmp	.-72     	; 0xf06 <main+0x56>

00000f4e <__umulhisi3>:
     f4e:	a2 9f       	mul	r26, r18
     f50:	b0 01       	movw	r22, r0
     f52:	b3 9f       	mul	r27, r19
     f54:	c0 01       	movw	r24, r0
     f56:	a3 9f       	mul	r26, r19
     f58:	70 0d       	add	r23, r0
     f5a:	81 1d       	adc	r24, r1
     f5c:	11 24       	eor	r1, r1
     f5e:	91 1d       	adc	r25, r1
     f60:	b2 9f       	mul	r27, r18
     f62:	70 0d       	add	r23, r0
     f64:	81 1d       	adc	r24, r1
     f66:	11 24       	eor	r1, r1
     f68:	91 1d       	adc	r25, r1
     f6a:	08 95       	ret

00000f6c <malloc>:
     f6c:	0f 93       	push	r16
     f6e:	1f 93       	push	r17
     f70:	cf 93       	push	r28
     f72:	df 93       	push	r29
     f74:	82 30       	cpi	r24, 0x02	; 2
     f76:	91 05       	cpc	r25, r1
     f78:	10 f4       	brcc	.+4      	; 0xf7e <malloc+0x12>
     f7a:	82 e0       	ldi	r24, 0x02	; 2
     f7c:	90 e0       	ldi	r25, 0x00	; 0
     f7e:	e0 91 52 03 	lds	r30, 0x0352	; 0x800352 <__flp>
     f82:	f0 91 53 03 	lds	r31, 0x0353	; 0x800353 <__flp+0x1>
     f86:	20 e0       	ldi	r18, 0x00	; 0
     f88:	30 e0       	ldi	r19, 0x00	; 0
     f8a:	a0 e0       	ldi	r26, 0x00	; 0
     f8c:	b0 e0       	ldi	r27, 0x00	; 0
     f8e:	30 97       	sbiw	r30, 0x00	; 0
     f90:	19 f1       	breq	.+70     	; 0xfd8 <malloc+0x6c>
     f92:	40 81       	ld	r20, Z
     f94:	51 81       	ldd	r21, Z+1	; 0x01
     f96:	02 81       	ldd	r16, Z+2	; 0x02
     f98:	13 81       	ldd	r17, Z+3	; 0x03
     f9a:	48 17       	cp	r20, r24
     f9c:	59 07       	cpc	r21, r25
     f9e:	c8 f0       	brcs	.+50     	; 0xfd2 <malloc+0x66>
     fa0:	84 17       	cp	r24, r20
     fa2:	95 07       	cpc	r25, r21
     fa4:	69 f4       	brne	.+26     	; 0xfc0 <malloc+0x54>
     fa6:	10 97       	sbiw	r26, 0x00	; 0
     fa8:	31 f0       	breq	.+12     	; 0xfb6 <malloc+0x4a>
     faa:	12 96       	adiw	r26, 0x02	; 2
     fac:	0c 93       	st	X, r16
     fae:	12 97       	sbiw	r26, 0x02	; 2
     fb0:	13 96       	adiw	r26, 0x03	; 3
     fb2:	1c 93       	st	X, r17
     fb4:	27 c0       	rjmp	.+78     	; 0x1004 <malloc+0x98>
     fb6:	00 93 52 03 	sts	0x0352, r16	; 0x800352 <__flp>
     fba:	10 93 53 03 	sts	0x0353, r17	; 0x800353 <__flp+0x1>
     fbe:	22 c0       	rjmp	.+68     	; 0x1004 <malloc+0x98>
     fc0:	21 15       	cp	r18, r1
     fc2:	31 05       	cpc	r19, r1
     fc4:	19 f0       	breq	.+6      	; 0xfcc <malloc+0x60>
     fc6:	42 17       	cp	r20, r18
     fc8:	53 07       	cpc	r21, r19
     fca:	18 f4       	brcc	.+6      	; 0xfd2 <malloc+0x66>
     fcc:	9a 01       	movw	r18, r20
     fce:	bd 01       	movw	r22, r26
     fd0:	ef 01       	movw	r28, r30
     fd2:	df 01       	movw	r26, r30
     fd4:	f8 01       	movw	r30, r16
     fd6:	db cf       	rjmp	.-74     	; 0xf8e <malloc+0x22>
     fd8:	21 15       	cp	r18, r1
     fda:	31 05       	cpc	r19, r1
     fdc:	f9 f0       	breq	.+62     	; 0x101c <malloc+0xb0>
     fde:	28 1b       	sub	r18, r24
     fe0:	39 0b       	sbc	r19, r25
     fe2:	24 30       	cpi	r18, 0x04	; 4
     fe4:	31 05       	cpc	r19, r1
     fe6:	80 f4       	brcc	.+32     	; 0x1008 <malloc+0x9c>
     fe8:	8a 81       	ldd	r24, Y+2	; 0x02
     fea:	9b 81       	ldd	r25, Y+3	; 0x03
     fec:	61 15       	cp	r22, r1
     fee:	71 05       	cpc	r23, r1
     ff0:	21 f0       	breq	.+8      	; 0xffa <malloc+0x8e>
     ff2:	fb 01       	movw	r30, r22
     ff4:	93 83       	std	Z+3, r25	; 0x03
     ff6:	82 83       	std	Z+2, r24	; 0x02
     ff8:	04 c0       	rjmp	.+8      	; 0x1002 <malloc+0x96>
     ffa:	90 93 53 03 	sts	0x0353, r25	; 0x800353 <__flp+0x1>
     ffe:	80 93 52 03 	sts	0x0352, r24	; 0x800352 <__flp>
    1002:	fe 01       	movw	r30, r28
    1004:	32 96       	adiw	r30, 0x02	; 2
    1006:	44 c0       	rjmp	.+136    	; 0x1090 <malloc+0x124>
    1008:	fe 01       	movw	r30, r28
    100a:	e2 0f       	add	r30, r18
    100c:	f3 1f       	adc	r31, r19
    100e:	81 93       	st	Z+, r24
    1010:	91 93       	st	Z+, r25
    1012:	22 50       	subi	r18, 0x02	; 2
    1014:	31 09       	sbc	r19, r1
    1016:	39 83       	std	Y+1, r19	; 0x01
    1018:	28 83       	st	Y, r18
    101a:	3a c0       	rjmp	.+116    	; 0x1090 <malloc+0x124>
    101c:	20 91 50 03 	lds	r18, 0x0350	; 0x800350 <__brkval>
    1020:	30 91 51 03 	lds	r19, 0x0351	; 0x800351 <__brkval+0x1>
    1024:	23 2b       	or	r18, r19
    1026:	41 f4       	brne	.+16     	; 0x1038 <malloc+0xcc>
    1028:	20 91 02 01 	lds	r18, 0x0102	; 0x800102 <__malloc_heap_start>
    102c:	30 91 03 01 	lds	r19, 0x0103	; 0x800103 <__malloc_heap_start+0x1>
    1030:	30 93 51 03 	sts	0x0351, r19	; 0x800351 <__brkval+0x1>
    1034:	20 93 50 03 	sts	0x0350, r18	; 0x800350 <__brkval>
    1038:	20 91 00 01 	lds	r18, 0x0100	; 0x800100 <__DATA_REGION_ORIGIN__>
    103c:	30 91 01 01 	lds	r19, 0x0101	; 0x800101 <__DATA_REGION_ORIGIN__+0x1>
    1040:	21 15       	cp	r18, r1
    1042:	31 05       	cpc	r19, r1
    1044:	41 f4       	brne	.+16     	; 0x1056 <malloc+0xea>
    1046:	2d b7       	in	r18, 0x3d	; 61
    1048:	3e b7       	in	r19, 0x3e	; 62
    104a:	40 91 04 01 	lds	r20, 0x0104	; 0x800104 <__malloc_margin>
    104e:	50 91 05 01 	lds	r21, 0x0105	; 0x800105 <__malloc_margin+0x1>
    1052:	24 1b       	sub	r18, r20
    1054:	35 0b       	sbc	r19, r21
    1056:	e0 91 50 03 	lds	r30, 0x0350	; 0x800350 <__brkval>
    105a:	f0 91 51 03 	lds	r31, 0x0351	; 0x800351 <__brkval+0x1>
    105e:	e2 17       	cp	r30, r18
    1060:	f3 07       	cpc	r31, r19
    1062:	a0 f4       	brcc	.+40     	; 0x108c <malloc+0x120>
    1064:	2e 1b       	sub	r18, r30
    1066:	3f 0b       	sbc	r19, r31
    1068:	28 17       	cp	r18, r24
    106a:	39 07       	cpc	r19, r25
    106c:	78 f0       	brcs	.+30     	; 0x108c <malloc+0x120>
    106e:	ac 01       	movw	r20, r24
    1070:	4e 5f       	subi	r20, 0xFE	; 254
    1072:	5f 4f       	sbci	r21, 0xFF	; 255
    1074:	24 17       	cp	r18, r20
    1076:	35 07       	cpc	r19, r21
    1078:	48 f0       	brcs	.+18     	; 0x108c <malloc+0x120>
    107a:	4e 0f       	add	r20, r30
    107c:	5f 1f       	adc	r21, r31
    107e:	50 93 51 03 	sts	0x0351, r21	; 0x800351 <__brkval+0x1>
    1082:	40 93 50 03 	sts	0x0350, r20	; 0x800350 <__brkval>
    1086:	81 93       	st	Z+, r24
    1088:	91 93       	st	Z+, r25
    108a:	02 c0       	rjmp	.+4      	; 0x1090 <malloc+0x124>
    108c:	e0 e0       	ldi	r30, 0x00	; 0
    108e:	f0 e0       	ldi	r31, 0x00	; 0
    1090:	cf 01       	movw	r24, r30
    1092:	df 91       	pop	r29
    1094:	cf 91       	pop	r28
    1096:	1f 91       	pop	r17
    1098:	0f 91       	pop	r16
    109a:	08 95       	ret

0000109c <free>:
    109c:	cf 93       	push	r28
    109e:	df 93       	push	r29
    10a0:	00 97       	sbiw	r24, 0x00	; 0
    10a2:	09 f4       	brne	.+2      	; 0x10a6 <free+0xa>
    10a4:	81 c0       	rjmp	.+258    	; 0x11a8 <free+0x10c>
    10a6:	fc 01       	movw	r30, r24
    10a8:	32 97       	sbiw	r30, 0x02	; 2
    10aa:	13 82       	std	Z+3, r1	; 0x03
    10ac:	12 82       	std	Z+2, r1	; 0x02
    10ae:	a0 91 52 03 	lds	r26, 0x0352	; 0x800352 <__flp>
    10b2:	b0 91 53 03 	lds	r27, 0x0353	; 0x800353 <__flp+0x1>
    10b6:	10 97       	sbiw	r26, 0x00	; 0
    10b8:	81 f4       	brne	.+32     	; 0x10da <free+0x3e>
    10ba:	20 81       	ld	r18, Z
    10bc:	31 81       	ldd	r19, Z+1	; 0x01
    10be:	82 0f       	add	r24, r18
    10c0:	93 1f       	adc	r25, r19
    10c2:	20 91 50 03 	lds	r18, 0x0350	; 0x800350 <__brkval>
    10c6:	30 91 51 03 	lds	r19, 0x0351	; 0x800351 <__brkval+0x1>
    10ca:	28 17       	cp	r18, r24
    10cc:	39 07       	cpc	r19, r25
    10ce:	51 f5       	brne	.+84     	; 0x1124 <free+0x88>
    10d0:	f0 93 51 03 	sts	0x0351, r31	; 0x800351 <__brkval+0x1>
    10d4:	e0 93 50 03 	sts	0x0350, r30	; 0x800350 <__brkval>
    10d8:	67 c0       	rjmp	.+206    	; 0x11a8 <free+0x10c>
    10da:	ed 01       	movw	r28, r26
    10dc:	20 e0       	ldi	r18, 0x00	; 0
    10de:	30 e0       	ldi	r19, 0x00	; 0
    10e0:	ce 17       	cp	r28, r30
    10e2:	df 07       	cpc	r29, r31
    10e4:	40 f4       	brcc	.+16     	; 0x10f6 <free+0x5a>
    10e6:	4a 81       	ldd	r20, Y+2	; 0x02
    10e8:	5b 81       	ldd	r21, Y+3	; 0x03
    10ea:	9e 01       	movw	r18, r28
    10ec:	41 15       	cp	r20, r1
    10ee:	51 05       	cpc	r21, r1
    10f0:	f1 f0       	breq	.+60     	; 0x112e <free+0x92>
    10f2:	ea 01       	movw	r28, r20
    10f4:	f5 cf       	rjmp	.-22     	; 0x10e0 <free+0x44>
    10f6:	d3 83       	std	Z+3, r29	; 0x03
    10f8:	c2 83       	std	Z+2, r28	; 0x02
    10fa:	40 81       	ld	r20, Z
    10fc:	51 81       	ldd	r21, Z+1	; 0x01
    10fe:	84 0f       	add	r24, r20
    1100:	95 1f       	adc	r25, r21
    1102:	c8 17       	cp	r28, r24
    1104:	d9 07       	cpc	r29, r25
    1106:	59 f4       	brne	.+22     	; 0x111e <free+0x82>
    1108:	88 81       	ld	r24, Y
    110a:	99 81       	ldd	r25, Y+1	; 0x01
    110c:	84 0f       	add	r24, r20
    110e:	95 1f       	adc	r25, r21
    1110:	02 96       	adiw	r24, 0x02	; 2
    1112:	91 83       	std	Z+1, r25	; 0x01
    1114:	80 83       	st	Z, r24
    1116:	8a 81       	ldd	r24, Y+2	; 0x02
    1118:	9b 81       	ldd	r25, Y+3	; 0x03
    111a:	93 83       	std	Z+3, r25	; 0x03
    111c:	82 83       	std	Z+2, r24	; 0x02
    111e:	21 15       	cp	r18, r1
    1120:	31 05       	cpc	r19, r1
    1122:	29 f4       	brne	.+10     	; 0x112e <free+0x92>
    1124:	f0 93 53 03 	sts	0x0353, r31	; 0x800353 <__flp+0x1>
    1128:	e0 93 52 03 	sts	0x0352, r30	; 0x800352 <__flp>
    112c:	3d c0       	rjmp	.+122    	; 0x11a8 <free+0x10c>
    112e:	e9 01       	movw	r28, r18
    1130:	fb 83       	std	Y+3, r31	; 0x03
    1132:	ea 83       	std	Y+2, r30	; 0x02
    1134:	49 91       	ld	r20, Y+
    1136:	59 91       	ld	r21, Y+
    1138:	c4 0f       	add	r28, r20
    113a:	d5 1f       	adc	r29, r21
    113c:	ec 17       	cp	r30, r28
    113e:	fd 07       	cpc	r31, r29
    1140:	61 f4       	brne	.+24     	; 0x115a <free+0xbe>
    1142:	80 81       	ld	r24, Z
    1144:	91 81       	ldd	r25, Z+1	; 0x01
    1146:	84 0f       	add	r24, r20
    1148:	95 1f       	adc	r25, r21
    114a:	02 96       	adiw	r24, 0x02	; 2
    114c:	e9 01       	movw	r28, r18
    114e:	99 83       	std	Y+1, r25	; 0x01
    1150:	88 83       	st	Y, r24
    1152:	82 81       	ldd	r24, Z+2	; 0x02
    1154:	93 81       	ldd	r25, Z+3	; 0x03
    1156:	9b 83       	std	Y+3, r25	; 0x03
    1158:	8a 83       	std	Y+2, r24	; 0x02
    115a:	e0 e0       	ldi	r30, 0x00	; 0
    115c:	f0 e0       	ldi	r31, 0x00	; 0
    115e:	12 96       	adiw	r26, 0x02	; 2
    1160:	8d 91       	ld	r24, X+
    1162:	9c 91       	ld	r25, X
    1164:	13 97       	sbiw	r26, 0x03	; 3
    1166:	00 97       	sbiw	r24, 0x00	; 0
    1168:	19 f0       	breq	.+6      	; 0x1170 <free+0xd4>
    116a:	fd 01       	movw	r30, r26
    116c:	dc 01       	movw	r26, r24
    116e:	f7 cf       	rjmp	.-18     	; 0x115e <free+0xc2>
    1170:	8d 91       	ld	r24, X+
    1172:	9c 91       	ld	r25, X
    1174:	11 97       	sbiw	r26, 0x01	; 1
    1176:	9d 01       	movw	r18, r26
    1178:	2e 5f       	subi	r18, 0xFE	; 254
    117a:	3f 4f       	sbci	r19, 0xFF	; 255
    117c:	82 0f       	add	r24, r18
    117e:	93 1f       	adc	r25, r19
    1180:	20 91 50 03 	lds	r18, 0x0350	; 0x800350 <__brkval>
    1184:	30 91 51 03 	lds	r19, 0x0351	; 0x800351 <__brkval+0x1>
    1188:	28 17       	cp	r18, r24
    118a:	39 07       	cpc	r19, r25
    118c:	69 f4       	brne	.+26     	; 0x11a8 <free+0x10c>
    118e:	30 97       	sbiw	r30, 0x00	; 0
    1190:	29 f4       	brne	.+10     	; 0x119c <free+0x100>
    1192:	10 92 53 03 	sts	0x0353, r1	; 0x800353 <__flp+0x1>
    1196:	10 92 52 03 	sts	0x0352, r1	; 0x800352 <__flp>
    119a:	02 c0       	rjmp	.+4      	; 0x11a0 <free+0x104>
    119c:	13 82       	std	Z+3, r1	; 0x03
    119e:	12 82       	std	Z+2, r1	; 0x02
    11a0:	b0 93 51 03 	sts	0x0351, r27	; 0x800351 <__brkval+0x1>
    11a4:	a0 93 50 03 	sts	0x0350, r26	; 0x800350 <__brkval>
    11a8:	df 91       	pop	r29
    11aa:	cf 91       	pop	r28
    11ac:	08 95       	ret

000011ae <fdevopen>:
    11ae:	0f 93       	push	r16
    11b0:	1f 93       	push	r17
    11b2:	cf 93       	push	r28
    11b4:	df 93       	push	r29
    11b6:	00 97       	sbiw	r24, 0x00	; 0
    11b8:	31 f4       	brne	.+12     	; 0x11c6 <fdevopen+0x18>
    11ba:	61 15       	cp	r22, r1
    11bc:	71 05       	cpc	r23, r1
    11be:	19 f4       	brne	.+6      	; 0x11c6 <fdevopen+0x18>
    11c0:	80 e0       	ldi	r24, 0x00	; 0
    11c2:	90 e0       	ldi	r25, 0x00	; 0
    11c4:	3a c0       	rjmp	.+116    	; 0x123a <fdevopen+0x8c>
    11c6:	8b 01       	movw	r16, r22
    11c8:	ec 01       	movw	r28, r24
    11ca:	6e e0       	ldi	r22, 0x0E	; 14
    11cc:	70 e0       	ldi	r23, 0x00	; 0
    11ce:	81 e0       	ldi	r24, 0x01	; 1
    11d0:	90 e0       	ldi	r25, 0x00	; 0
    11d2:	0e 94 52 09 	call	0x12a4	; 0x12a4 <calloc>
    11d6:	fc 01       	movw	r30, r24
    11d8:	89 2b       	or	r24, r25
    11da:	91 f3       	breq	.-28     	; 0x11c0 <fdevopen+0x12>
    11dc:	80 e8       	ldi	r24, 0x80	; 128
    11de:	83 83       	std	Z+3, r24	; 0x03
    11e0:	01 15       	cp	r16, r1
    11e2:	11 05       	cpc	r17, r1
    11e4:	71 f0       	breq	.+28     	; 0x1202 <fdevopen+0x54>
    11e6:	13 87       	std	Z+11, r17	; 0x0b
    11e8:	02 87       	std	Z+10, r16	; 0x0a
    11ea:	81 e8       	ldi	r24, 0x81	; 129
    11ec:	83 83       	std	Z+3, r24	; 0x03
    11ee:	80 91 54 03 	lds	r24, 0x0354	; 0x800354 <__iob>
    11f2:	90 91 55 03 	lds	r25, 0x0355	; 0x800355 <__iob+0x1>
    11f6:	89 2b       	or	r24, r25
    11f8:	21 f4       	brne	.+8      	; 0x1202 <fdevopen+0x54>
    11fa:	f0 93 55 03 	sts	0x0355, r31	; 0x800355 <__iob+0x1>
    11fe:	e0 93 54 03 	sts	0x0354, r30	; 0x800354 <__iob>
    1202:	20 97       	sbiw	r28, 0x00	; 0
    1204:	c9 f0       	breq	.+50     	; 0x1238 <fdevopen+0x8a>
    1206:	d1 87       	std	Z+9, r29	; 0x09
    1208:	c0 87       	std	Z+8, r28	; 0x08
    120a:	83 81       	ldd	r24, Z+3	; 0x03
    120c:	82 60       	ori	r24, 0x02	; 2
    120e:	83 83       	std	Z+3, r24	; 0x03
    1210:	80 91 56 03 	lds	r24, 0x0356	; 0x800356 <__iob+0x2>
    1214:	90 91 57 03 	lds	r25, 0x0357	; 0x800357 <__iob+0x3>
    1218:	89 2b       	or	r24, r25
    121a:	71 f4       	brne	.+28     	; 0x1238 <fdevopen+0x8a>
    121c:	f0 93 57 03 	sts	0x0357, r31	; 0x800357 <__iob+0x3>
    1220:	e0 93 56 03 	sts	0x0356, r30	; 0x800356 <__iob+0x2>
    1224:	80 91 58 03 	lds	r24, 0x0358	; 0x800358 <__iob+0x4>
    1228:	90 91 59 03 	lds	r25, 0x0359	; 0x800359 <__iob+0x5>
    122c:	89 2b       	or	r24, r25
    122e:	21 f4       	brne	.+8      	; 0x1238 <fdevopen+0x8a>
    1230:	f0 93 59 03 	sts	0x0359, r31	; 0x800359 <__iob+0x5>
    1234:	e0 93 58 03 	sts	0x0358, r30	; 0x800358 <__iob+0x4>
    1238:	cf 01       	movw	r24, r30
    123a:	df 91       	pop	r29
    123c:	cf 91       	pop	r28
    123e:	1f 91       	pop	r17
    1240:	0f 91       	pop	r16
    1242:	08 95       	ret

00001244 <puts>:
    1244:	0f 93       	push	r16
    1246:	1f 93       	push	r17
    1248:	cf 93       	push	r28
    124a:	df 93       	push	r29
    124c:	e0 91 56 03 	lds	r30, 0x0356	; 0x800356 <__iob+0x2>
    1250:	f0 91 57 03 	lds	r31, 0x0357	; 0x800357 <__iob+0x3>
    1254:	23 81       	ldd	r18, Z+3	; 0x03
    1256:	21 ff       	sbrs	r18, 1
    1258:	1b c0       	rjmp	.+54     	; 0x1290 <puts+0x4c>
    125a:	8c 01       	movw	r16, r24
    125c:	d0 e0       	ldi	r29, 0x00	; 0
    125e:	c0 e0       	ldi	r28, 0x00	; 0
    1260:	f8 01       	movw	r30, r16
    1262:	81 91       	ld	r24, Z+
    1264:	8f 01       	movw	r16, r30
    1266:	60 91 56 03 	lds	r22, 0x0356	; 0x800356 <__iob+0x2>
    126a:	70 91 57 03 	lds	r23, 0x0357	; 0x800357 <__iob+0x3>
    126e:	db 01       	movw	r26, r22
    1270:	18 96       	adiw	r26, 0x08	; 8
    1272:	ed 91       	ld	r30, X+
    1274:	fc 91       	ld	r31, X
    1276:	19 97       	sbiw	r26, 0x09	; 9
    1278:	88 23       	and	r24, r24
    127a:	31 f0       	breq	.+12     	; 0x1288 <puts+0x44>
    127c:	09 95       	icall
    127e:	89 2b       	or	r24, r25
    1280:	79 f3       	breq	.-34     	; 0x1260 <puts+0x1c>
    1282:	df ef       	ldi	r29, 0xFF	; 255
    1284:	cf ef       	ldi	r28, 0xFF	; 255
    1286:	ec cf       	rjmp	.-40     	; 0x1260 <puts+0x1c>
    1288:	8a e0       	ldi	r24, 0x0A	; 10
    128a:	09 95       	icall
    128c:	89 2b       	or	r24, r25
    128e:	19 f0       	breq	.+6      	; 0x1296 <puts+0x52>
    1290:	8f ef       	ldi	r24, 0xFF	; 255
    1292:	9f ef       	ldi	r25, 0xFF	; 255
    1294:	02 c0       	rjmp	.+4      	; 0x129a <puts+0x56>
    1296:	8d 2f       	mov	r24, r29
    1298:	9c 2f       	mov	r25, r28
    129a:	df 91       	pop	r29
    129c:	cf 91       	pop	r28
    129e:	1f 91       	pop	r17
    12a0:	0f 91       	pop	r16
    12a2:	08 95       	ret

000012a4 <calloc>:
    12a4:	0f 93       	push	r16
    12a6:	1f 93       	push	r17
    12a8:	cf 93       	push	r28
    12aa:	df 93       	push	r29
    12ac:	86 9f       	mul	r24, r22
    12ae:	80 01       	movw	r16, r0
    12b0:	87 9f       	mul	r24, r23
    12b2:	10 0d       	add	r17, r0
    12b4:	96 9f       	mul	r25, r22
    12b6:	10 0d       	add	r17, r0
    12b8:	11 24       	eor	r1, r1
    12ba:	c8 01       	movw	r24, r16
    12bc:	0e 94 b6 07 	call	0xf6c	; 0xf6c <malloc>
    12c0:	ec 01       	movw	r28, r24
    12c2:	00 97       	sbiw	r24, 0x00	; 0
    12c4:	29 f0       	breq	.+10     	; 0x12d0 <calloc+0x2c>
    12c6:	a8 01       	movw	r20, r16
    12c8:	60 e0       	ldi	r22, 0x00	; 0
    12ca:	70 e0       	ldi	r23, 0x00	; 0
    12cc:	0e 94 6e 09 	call	0x12dc	; 0x12dc <memset>
    12d0:	ce 01       	movw	r24, r28
    12d2:	df 91       	pop	r29
    12d4:	cf 91       	pop	r28
    12d6:	1f 91       	pop	r17
    12d8:	0f 91       	pop	r16
    12da:	08 95       	ret

000012dc <memset>:
    12dc:	dc 01       	movw	r26, r24
    12de:	01 c0       	rjmp	.+2      	; 0x12e2 <memset+0x6>
    12e0:	6d 93       	st	X+, r22
    12e2:	41 50       	subi	r20, 0x01	; 1
    12e4:	50 40       	sbci	r21, 0x00	; 0
    12e6:	e0 f7       	brcc	.-8      	; 0x12e0 <memset+0x4>
    12e8:	08 95       	ret

000012ea <_exit>:
    12ea:	f8 94       	cli

000012ec <__stop_program>:
    12ec:	ff cf       	rjmp	.-2      	; 0x12ec <__stop_program>
