
tiktok.elf:     file format elf32-avr

Sections:
Idx Name          Size      VMA       LMA       File off  Algn
  0 .data         0000025c  00800100  00001b5c  00001bf0  2**0
                  CONTENTS, ALLOC, LOAD, DATA
  1 .text         00001b5c  00000000  00000000  00000094  2**1
                  CONTENTS, ALLOC, LOAD, READONLY, CODE
  2 .bss          0000002f  0080035c  0080035c  00001e4c  2**0
                  ALLOC
  3 .comment      0000005c  00000000  00000000  00001e4c  2**0
                  CONTENTS, READONLY
  4 .note.gnu.avr.deviceinfo 0000003c  00000000  00000000  00001ea8  2**2
                  CONTENTS, READONLY
  5 .debug_aranges 00000210  00000000  00000000  00001ee4  2**0
                  CONTENTS, READONLY, DEBUGGING
  6 .debug_info   00002b66  00000000  00000000  000020f4  2**0
                  CONTENTS, READONLY, DEBUGGING
  7 .debug_abbrev 00000a03  00000000  00000000  00004c5a  2**0
                  CONTENTS, READONLY, DEBUGGING
  8 .debug_line   00001282  00000000  00000000  0000565d  2**0
                  CONTENTS, READONLY, DEBUGGING
  9 .debug_frame  00000660  00000000  00000000  000068e0  2**2
                  CONTENTS, READONLY, DEBUGGING
 10 .debug_str    00000972  00000000  00000000  00006f40  2**0
                  CONTENTS, READONLY, DEBUGGING
 11 .debug_loc    000012bd  00000000  00000000  000078b2  2**0
                  CONTENTS, READONLY, DEBUGGING
 12 .debug_ranges 00000230  00000000  00000000  00008b6f  2**0
                  CONTENTS, READONLY, DEBUGGING

Disassembly of section .text:

00000000 <__vectors>:
       0:	0c 94 b4 01 	jmp	0x368	; 0x368 <__ctors_end>
       4:	0c 94 d1 01 	jmp	0x3a2	; 0x3a2 <__bad_interrupt>
       8:	0c 94 d1 01 	jmp	0x3a2	; 0x3a2 <__bad_interrupt>
       c:	0c 94 d1 01 	jmp	0x3a2	; 0x3a2 <__bad_interrupt>
      10:	0c 94 d1 01 	jmp	0x3a2	; 0x3a2 <__bad_interrupt>
      14:	0c 94 d1 01 	jmp	0x3a2	; 0x3a2 <__bad_interrupt>
      18:	0c 94 d1 01 	jmp	0x3a2	; 0x3a2 <__bad_interrupt>
      1c:	0c 94 d1 01 	jmp	0x3a2	; 0x3a2 <__bad_interrupt>
      20:	0c 94 d1 01 	jmp	0x3a2	; 0x3a2 <__bad_interrupt>
      24:	0c 94 d1 01 	jmp	0x3a2	; 0x3a2 <__bad_interrupt>
      28:	0c 94 d1 01 	jmp	0x3a2	; 0x3a2 <__bad_interrupt>
      2c:	0c 94 d1 01 	jmp	0x3a2	; 0x3a2 <__bad_interrupt>
      30:	0c 94 d1 01 	jmp	0x3a2	; 0x3a2 <__bad_interrupt>
      34:	0c 94 d1 01 	jmp	0x3a2	; 0x3a2 <__bad_interrupt>
      38:	0c 94 d1 01 	jmp	0x3a2	; 0x3a2 <__bad_interrupt>
      3c:	0c 94 d1 01 	jmp	0x3a2	; 0x3a2 <__bad_interrupt>
      40:	0c 94 d1 01 	jmp	0x3a2	; 0x3a2 <__bad_interrupt>
      44:	0c 94 d1 01 	jmp	0x3a2	; 0x3a2 <__bad_interrupt>
      48:	0c 94 d1 01 	jmp	0x3a2	; 0x3a2 <__bad_interrupt>
      4c:	0c 94 d1 01 	jmp	0x3a2	; 0x3a2 <__bad_interrupt>
      50:	0c 94 d1 01 	jmp	0x3a2	; 0x3a2 <__bad_interrupt>
      54:	0c 94 d1 01 	jmp	0x3a2	; 0x3a2 <__bad_interrupt>
      58:	0c 94 d1 01 	jmp	0x3a2	; 0x3a2 <__bad_interrupt>
      5c:	0c 94 d1 01 	jmp	0x3a2	; 0x3a2 <__bad_interrupt>
      60:	0c 94 d1 01 	jmp	0x3a2	; 0x3a2 <__bad_interrupt>
      64:	0c 94 d1 01 	jmp	0x3a2	; 0x3a2 <__bad_interrupt>
      68:	0c 94 d1 01 	jmp	0x3a2	; 0x3a2 <__bad_interrupt>
      6c:	0c 94 d1 01 	jmp	0x3a2	; 0x3a2 <__bad_interrupt>

00000070 <__trampolines_end>:
	...
      78:	00 06       	cpc	r0, r16
      7a:	5f 5f       	subi	r21, 0xFF	; 255
      7c:	06 00       	.word	0x0006	; ????
      7e:	00 00       	nop
      80:	00 07       	cpc	r16, r16
      82:	07 00       	.word	0x0007	; ????
      84:	07 07       	cpc	r16, r23
      86:	00 00       	nop
      88:	14 7f       	andi	r17, 0xF4	; 244
      8a:	7f 14       	cp	r7, r15
      8c:	7f 7f       	andi	r23, 0xFF	; 255
      8e:	14 00       	.word	0x0014	; ????
      90:	24 2e       	mov	r2, r20
      92:	6b 6b       	ori	r22, 0xBB	; 187
      94:	3a 12       	cpse	r3, r26
      96:	00 00       	nop
      98:	46 66       	ori	r20, 0x66	; 102
      9a:	30 18       	sub	r3, r0
      9c:	0c 66       	ori	r16, 0x6C	; 108
      9e:	62 00       	.word	0x0062	; ????
      a0:	30 7a       	andi	r19, 0xA0	; 160
      a2:	4f 5d       	subi	r20, 0xDF	; 223
      a4:	37 7a       	andi	r19, 0xA7	; 167
      a6:	48 00       	.word	0x0048	; ????
      a8:	04 07       	cpc	r16, r20
      aa:	03 00       	.word	0x0003	; ????
      ac:	00 00       	nop
      ae:	00 00       	nop
      b0:	00 1c       	adc	r0, r0
      b2:	3e 63       	ori	r19, 0x3E	; 62
      b4:	41 00       	.word	0x0041	; ????
      b6:	00 00       	nop
      b8:	00 41       	sbci	r16, 0x10	; 16
      ba:	63 3e       	cpi	r22, 0xE3	; 227
      bc:	1c 00       	.word	0x001c	; ????
      be:	00 00       	nop
      c0:	08 2a       	or	r0, r24
      c2:	3e 1c       	adc	r3, r14
      c4:	1c 3e       	cpi	r17, 0xEC	; 236
      c6:	2a 08       	sbc	r2, r10
      c8:	08 08       	sbc	r0, r8
      ca:	3e 3e       	cpi	r19, 0xEE	; 238
      cc:	08 08       	sbc	r0, r8
      ce:	00 00       	nop
      d0:	00 a0       	ldd	r0, Z+32	; 0x20
      d2:	e0 60       	ori	r30, 0x00	; 0
      d4:	00 00       	nop
      d6:	00 00       	nop
      d8:	08 08       	sbc	r0, r8
      da:	08 08       	sbc	r0, r8
      dc:	08 08       	sbc	r0, r8
      de:	00 00       	nop
      e0:	00 00       	nop
      e2:	60 60       	ori	r22, 0x00	; 0
      e4:	00 00       	nop
      e6:	00 00       	nop
      e8:	60 30       	cpi	r22, 0x00	; 0
      ea:	18 0c       	add	r1, r8
      ec:	06 03       	mulsu	r16, r22
      ee:	01 00       	.word	0x0001	; ????
      f0:	3e 7f       	andi	r19, 0xFE	; 254
      f2:	59 4d       	sbci	r21, 0xD9	; 217
      f4:	7f 3e       	cpi	r23, 0xEF	; 239
      f6:	00 00       	nop
      f8:	42 42       	sbci	r20, 0x22	; 34
      fa:	7f 7f       	andi	r23, 0xFF	; 255
      fc:	40 40       	sbci	r20, 0x00	; 0
      fe:	00 00       	nop
     100:	62 73       	andi	r22, 0x32	; 50
     102:	59 49       	sbci	r21, 0x99	; 153
     104:	6f 66       	ori	r22, 0x6F	; 111
     106:	00 00       	nop
     108:	22 63       	ori	r18, 0x32	; 50
     10a:	49 49       	sbci	r20, 0x99	; 153
     10c:	7f 36       	cpi	r23, 0x6F	; 111
     10e:	00 00       	nop
     110:	18 1c       	adc	r1, r8
     112:	16 13       	cpse	r17, r22
     114:	7f 7f       	andi	r23, 0xFF	; 255
     116:	10 00       	.word	0x0010	; ????
     118:	27 67       	ori	r18, 0x77	; 119
     11a:	45 45       	sbci	r20, 0x55	; 85
     11c:	7d 39       	cpi	r23, 0x9D	; 157
     11e:	00 00       	nop
     120:	3c 7e       	andi	r19, 0xEC	; 236
     122:	4b 49       	sbci	r20, 0x9B	; 155
     124:	79 30       	cpi	r23, 0x09	; 9
     126:	00 00       	nop
     128:	03 63       	ori	r16, 0x33	; 51
     12a:	71 19       	sub	r23, r1
     12c:	0f 07       	cpc	r16, r31
     12e:	00 00       	nop
     130:	36 7f       	andi	r19, 0xF6	; 246
     132:	49 49       	sbci	r20, 0x99	; 153
     134:	7f 36       	cpi	r23, 0x6F	; 111
     136:	00 00       	nop
     138:	06 4f       	sbci	r16, 0xF6	; 246
     13a:	49 69       	ori	r20, 0x99	; 153
     13c:	3f 1e       	adc	r3, r31
     13e:	00 00       	nop
     140:	00 00       	nop
     142:	6c 6c       	ori	r22, 0xCC	; 204
     144:	00 00       	nop
     146:	00 00       	nop
     148:	00 a0       	ldd	r0, Z+32	; 0x20
     14a:	ec 6c       	ori	r30, 0xCC	; 204
     14c:	00 00       	nop
     14e:	00 00       	nop
     150:	08 1c       	adc	r0, r8
     152:	36 63       	ori	r19, 0x36	; 54
     154:	41 00       	.word	0x0041	; ????
     156:	00 00       	nop
     158:	14 14       	cp	r1, r4
     15a:	14 14       	cp	r1, r4
     15c:	14 14       	cp	r1, r4
     15e:	00 00       	nop
     160:	00 41       	sbci	r16, 0x10	; 16
     162:	63 36       	cpi	r22, 0x63	; 99
     164:	1c 08       	sbc	r1, r12
     166:	00 00       	nop
     168:	02 03       	mulsu	r16, r18
     16a:	51 59       	subi	r21, 0x91	; 145
     16c:	0f 06       	cpc	r0, r31
     16e:	00 00       	nop
     170:	3e 7f       	andi	r19, 0xFE	; 254
     172:	41 5d       	subi	r20, 0xD1	; 209
     174:	5d 1f       	adc	r21, r29
     176:	1e 00       	.word	0x001e	; ????
     178:	7c 7e       	andi	r23, 0xEC	; 236
     17a:	13 13       	cpse	r17, r19
     17c:	7e 7c       	andi	r23, 0xCE	; 206
     17e:	00 00       	nop
     180:	41 7f       	andi	r20, 0xF1	; 241
     182:	7f 49       	sbci	r23, 0x9F	; 159
     184:	49 7f       	andi	r20, 0xF9	; 249
     186:	36 00       	.word	0x0036	; ????
     188:	1c 3e       	cpi	r17, 0xEC	; 236
     18a:	63 41       	sbci	r22, 0x13	; 19
     18c:	41 63       	ori	r20, 0x31	; 49
     18e:	22 00       	.word	0x0022	; ????
     190:	41 7f       	andi	r20, 0xF1	; 241
     192:	7f 41       	sbci	r23, 0x1F	; 31
     194:	63 7f       	andi	r22, 0xF3	; 243
     196:	1c 00       	.word	0x001c	; ????
     198:	41 7f       	andi	r20, 0xF1	; 241
     19a:	7f 49       	sbci	r23, 0x9F	; 159
     19c:	5d 41       	sbci	r21, 0x1D	; 29
     19e:	63 00       	.word	0x0063	; ????
     1a0:	41 7f       	andi	r20, 0xF1	; 241
     1a2:	7f 49       	sbci	r23, 0x9F	; 159
     1a4:	1d 01       	movw	r2, r26
     1a6:	03 00       	.word	0x0003	; ????
     1a8:	1c 3e       	cpi	r17, 0xEC	; 236
     1aa:	63 41       	sbci	r22, 0x13	; 19
     1ac:	51 73       	andi	r21, 0x31	; 49
     1ae:	72 00       	.word	0x0072	; ????
     1b0:	7f 7f       	andi	r23, 0xFF	; 255
     1b2:	08 08       	sbc	r0, r8
     1b4:	7f 7f       	andi	r23, 0xFF	; 255
     1b6:	00 00       	nop
     1b8:	00 41       	sbci	r16, 0x10	; 16
     1ba:	7f 7f       	andi	r23, 0xFF	; 255
     1bc:	41 00       	.word	0x0041	; ????
     1be:	00 00       	nop
     1c0:	30 70       	andi	r19, 0x00	; 0
     1c2:	40 41       	sbci	r20, 0x10	; 16
     1c4:	7f 3f       	cpi	r23, 0xFF	; 255
     1c6:	01 00       	.word	0x0001	; ????
     1c8:	41 7f       	andi	r20, 0xF1	; 241
     1ca:	7f 08       	sbc	r7, r15
     1cc:	1c 77       	andi	r17, 0x7C	; 124
     1ce:	63 00       	.word	0x0063	; ????
     1d0:	41 7f       	andi	r20, 0xF1	; 241
     1d2:	7f 41       	sbci	r23, 0x1F	; 31
     1d4:	40 60       	ori	r20, 0x00	; 0
     1d6:	70 00       	.word	0x0070	; ????
     1d8:	7f 7f       	andi	r23, 0xFF	; 255
     1da:	06 0c       	add	r0, r6
     1dc:	06 7f       	andi	r16, 0xF6	; 246
     1de:	7f 00       	.word	0x007f	; ????
     1e0:	7f 7f       	andi	r23, 0xFF	; 255
     1e2:	06 0c       	add	r0, r6
     1e4:	18 7f       	andi	r17, 0xF8	; 248
     1e6:	7f 00       	.word	0x007f	; ????
     1e8:	1c 3e       	cpi	r17, 0xEC	; 236
     1ea:	63 41       	sbci	r22, 0x13	; 19
     1ec:	63 3e       	cpi	r22, 0xE3	; 227
     1ee:	1c 00       	.word	0x001c	; ????
     1f0:	41 7f       	andi	r20, 0xF1	; 241
     1f2:	7f 49       	sbci	r23, 0x9F	; 159
     1f4:	09 0f       	add	r16, r25
     1f6:	06 00       	.word	0x0006	; ????
     1f8:	1e 3f       	cpi	r17, 0xFE	; 254
     1fa:	21 71       	andi	r18, 0x11	; 17
     1fc:	7f 5e       	subi	r23, 0xEF	; 239
     1fe:	00 00       	nop
     200:	41 7f       	andi	r20, 0xF1	; 241
     202:	7f 19       	sub	r23, r15
     204:	39 6f       	ori	r19, 0xF9	; 249
     206:	46 00       	.word	0x0046	; ????
     208:	26 67       	ori	r18, 0x76	; 118
     20a:	4d 59       	subi	r20, 0x9D	; 157
     20c:	7b 32       	cpi	r23, 0x2B	; 43
     20e:	00 00       	nop
     210:	03 41       	sbci	r16, 0x13	; 19
     212:	7f 7f       	andi	r23, 0xFF	; 255
     214:	41 03       	mulsu	r20, r17
     216:	00 00       	nop
     218:	7f 7f       	andi	r23, 0xFF	; 255
     21a:	40 40       	sbci	r20, 0x00	; 0
     21c:	7f 7f       	andi	r23, 0xFF	; 255
     21e:	00 00       	nop
     220:	1f 3f       	cpi	r17, 0xFF	; 255
     222:	60 60       	ori	r22, 0x00	; 0
     224:	3f 1f       	adc	r19, r31
     226:	00 00       	nop
     228:	7f 7f       	andi	r23, 0xFF	; 255
     22a:	30 18       	sub	r3, r0
     22c:	30 7f       	andi	r19, 0xF0	; 240
     22e:	7f 00       	.word	0x007f	; ????
     230:	63 77       	andi	r22, 0x73	; 115
     232:	1c 08       	sbc	r1, r12
     234:	1c 77       	andi	r17, 0x7C	; 124
     236:	63 00       	.word	0x0063	; ????
     238:	07 4f       	sbci	r16, 0xF7	; 247
     23a:	78 78       	andi	r23, 0x88	; 136
     23c:	4f 07       	cpc	r20, r31
     23e:	00 00       	nop
     240:	67 73       	andi	r22, 0x37	; 55
     242:	59 4d       	sbci	r21, 0xD9	; 217
     244:	47 63       	ori	r20, 0x37	; 55
     246:	71 00       	.word	0x0071	; ????
     248:	00 7f       	andi	r16, 0xF0	; 240
     24a:	7f 41       	sbci	r23, 0x1F	; 31
     24c:	41 00       	.word	0x0041	; ????
     24e:	00 00       	nop
     250:	01 03       	mulsu	r16, r17
     252:	06 0c       	add	r0, r6
     254:	18 30       	cpi	r17, 0x08	; 8
     256:	60 00       	.word	0x0060	; ????
     258:	00 41       	sbci	r16, 0x10	; 16
     25a:	41 7f       	andi	r20, 0xF1	; 241
     25c:	7f 00       	.word	0x007f	; ????
     25e:	00 00       	nop
     260:	08 0c       	add	r0, r8
     262:	06 03       	mulsu	r16, r22
     264:	06 0c       	add	r0, r6
     266:	08 00       	.word	0x0008	; ????
     268:	80 80       	ld	r8, Z
     26a:	80 80       	ld	r8, Z
     26c:	80 80       	ld	r8, Z
     26e:	80 80       	ld	r8, Z
     270:	00 00       	nop
     272:	03 07       	cpc	r16, r19
     274:	04 00       	.word	0x0004	; ????
     276:	00 00       	nop
     278:	20 74       	andi	r18, 0x40	; 64
     27a:	54 54       	subi	r21, 0x44	; 68
     27c:	3c 78       	andi	r19, 0x8C	; 140
     27e:	40 00       	.word	0x0040	; ????
     280:	41 3f       	cpi	r20, 0xF1	; 241
     282:	7f 44       	sbci	r23, 0x4F	; 79
     284:	44 7c       	andi	r20, 0xC4	; 196
     286:	38 00       	.word	0x0038	; ????
     288:	38 7c       	andi	r19, 0xC8	; 200
     28a:	44 44       	sbci	r20, 0x44	; 68
     28c:	6c 28       	or	r6, r12
     28e:	00 00       	nop
     290:	30 78       	andi	r19, 0x80	; 128
     292:	48 49       	sbci	r20, 0x98	; 152
     294:	3f 7f       	andi	r19, 0xFF	; 255
     296:	40 00       	.word	0x0040	; ????
     298:	38 7c       	andi	r19, 0xC8	; 200
     29a:	54 54       	subi	r21, 0x44	; 68
     29c:	5c 18       	sub	r5, r12
     29e:	00 00       	nop
     2a0:	48 7e       	andi	r20, 0xE8	; 232
     2a2:	7f 49       	sbci	r23, 0x9F	; 159
     2a4:	03 02       	muls	r16, r19
     2a6:	00 00       	nop
     2a8:	98 bc       	out	0x28, r9	; 40
     2aa:	a4 a4       	ldd	r10, Z+44	; 0x2c
     2ac:	f8 7c       	andi	r31, 0xC8	; 200
     2ae:	04 00       	.word	0x0004	; ????
     2b0:	41 7f       	andi	r20, 0xF1	; 241
     2b2:	7f 08       	sbc	r7, r15
     2b4:	04 7c       	andi	r16, 0xC4	; 196
     2b6:	78 00       	.word	0x0078	; ????
     2b8:	00 44       	sbci	r16, 0x40	; 64
     2ba:	7d 7d       	andi	r23, 0xDD	; 221
     2bc:	40 00       	.word	0x0040	; ????
     2be:	00 00       	nop
     2c0:	40 c4       	rjmp	.+2176   	; 0xb42 <f_play+0x14>
     2c2:	84 fd       	sbrc	r24, 4
     2c4:	7d 00       	.word	0x007d	; ????
     2c6:	00 00       	nop
     2c8:	41 7f       	andi	r20, 0xF1	; 241
     2ca:	7f 10       	cpse	r7, r15
     2cc:	38 6c       	ori	r19, 0xC8	; 200
     2ce:	44 00       	.word	0x0044	; ????
     2d0:	00 41       	sbci	r16, 0x10	; 16
     2d2:	7f 7f       	andi	r23, 0xFF	; 255
     2d4:	40 00       	.word	0x0040	; ????
     2d6:	00 00       	nop
     2d8:	7c 7c       	andi	r23, 0xCC	; 204
     2da:	0c 18       	sub	r0, r12
     2dc:	0c 7c       	andi	r16, 0xCC	; 204
     2de:	78 00       	.word	0x0078	; ????
     2e0:	7c 7c       	andi	r23, 0xCC	; 204
     2e2:	04 04       	cpc	r0, r4
     2e4:	7c 78       	andi	r23, 0x8C	; 140
     2e6:	00 00       	nop
     2e8:	38 7c       	andi	r19, 0xC8	; 200
     2ea:	44 44       	sbci	r20, 0x44	; 68
     2ec:	7c 38       	cpi	r23, 0x8C	; 140
     2ee:	00 00       	nop
     2f0:	84 fc       	sbrc	r8, 4
     2f2:	f8 a4       	ldd	r15, Y+40	; 0x28
     2f4:	24 3c       	cpi	r18, 0xC4	; 196
     2f6:	18 00       	.word	0x0018	; ????
     2f8:	18 3c       	cpi	r17, 0xC8	; 200
     2fa:	24 a4       	ldd	r2, Z+44	; 0x2c
     2fc:	f8 fc       	.word	0xfcf8	; ????
     2fe:	84 00       	.word	0x0084	; ????
     300:	44 7c       	andi	r20, 0xC4	; 196
     302:	78 44       	sbci	r23, 0x48	; 72
     304:	1c 18       	sub	r1, r12
     306:	00 00       	nop
     308:	48 5c       	subi	r20, 0xC8	; 200
     30a:	54 54       	subi	r21, 0x44	; 68
     30c:	74 24       	eor	r7, r4
     30e:	00 00       	nop
     310:	00 04       	cpc	r0, r0
     312:	3e 7f       	andi	r19, 0xFE	; 254
     314:	44 24       	eor	r4, r4
     316:	00 00       	nop
     318:	3c 7c       	andi	r19, 0xCC	; 204
     31a:	40 40       	sbci	r20, 0x00	; 0
     31c:	3c 7c       	andi	r19, 0xCC	; 204
     31e:	40 00       	.word	0x0040	; ????
     320:	1c 3c       	cpi	r17, 0xCC	; 204
     322:	60 60       	ori	r22, 0x00	; 0
     324:	3c 1c       	adc	r3, r12
     326:	00 00       	nop
     328:	3c 7c       	andi	r19, 0xCC	; 204
     32a:	60 30       	cpi	r22, 0x00	; 0
     32c:	60 7c       	andi	r22, 0xC0	; 192
     32e:	3c 00       	.word	0x003c	; ????
     330:	44 6c       	ori	r20, 0xC4	; 196
     332:	38 10       	cpse	r3, r8
     334:	38 6c       	ori	r19, 0xC8	; 200
     336:	44 00       	.word	0x0044	; ????
     338:	9c bc       	out	0x2c, r9	; 44
     33a:	a0 a0       	ldd	r10, Z+32	; 0x20
     33c:	fc 7c       	andi	r31, 0xCC	; 204
     33e:	00 00       	nop
     340:	4c 64       	ori	r20, 0x4C	; 76
     342:	74 5c       	subi	r23, 0xC4	; 196
     344:	4c 64       	ori	r20, 0x4C	; 76
     346:	00 00       	nop
     348:	08 08       	sbc	r0, r8
     34a:	3e 77       	andi	r19, 0x7E	; 126
     34c:	41 41       	sbci	r20, 0x11	; 17
     34e:	00 00       	nop
     350:	00 00       	nop
     352:	00 77       	andi	r16, 0x70	; 112
     354:	77 00       	.word	0x0077	; ????
     356:	00 00       	nop
     358:	41 41       	sbci	r20, 0x11	; 17
     35a:	77 3e       	cpi	r23, 0xE7	; 231
     35c:	08 08       	sbc	r0, r8
     35e:	00 00       	nop
     360:	02 03       	mulsu	r16, r18
     362:	01 03       	mulsu	r16, r17
     364:	02 03       	mulsu	r16, r18
     366:	01 00       	.word	0x0001	; ????

00000368 <__ctors_end>:
     368:	11 24       	eor	r1, r1
     36a:	1f be       	out	0x3f, r1	; 63
     36c:	cf ef       	ldi	r28, 0xFF	; 255
     36e:	d4 e0       	ldi	r29, 0x04	; 4
     370:	de bf       	out	0x3e, r29	; 62
     372:	cd bf       	out	0x3d, r28	; 61

00000374 <__do_copy_data>:
     374:	13 e0       	ldi	r17, 0x03	; 3
     376:	a0 e0       	ldi	r26, 0x00	; 0
     378:	b1 e0       	ldi	r27, 0x01	; 1
     37a:	ec e5       	ldi	r30, 0x5C	; 92
     37c:	fb e1       	ldi	r31, 0x1B	; 27
     37e:	02 c0       	rjmp	.+4      	; 0x384 <__do_copy_data+0x10>
     380:	05 90       	lpm	r0, Z+
     382:	0d 92       	st	X+, r0
     384:	ac 35       	cpi	r26, 0x5C	; 92
     386:	b1 07       	cpc	r27, r17
     388:	d9 f7       	brne	.-10     	; 0x380 <__do_copy_data+0xc>

0000038a <__do_clear_bss>:
     38a:	23 e0       	ldi	r18, 0x03	; 3
     38c:	ac e5       	ldi	r26, 0x5C	; 92
     38e:	b3 e0       	ldi	r27, 0x03	; 3
     390:	01 c0       	rjmp	.+2      	; 0x394 <.do_clear_bss_start>

00000392 <.do_clear_bss_loop>:
     392:	1d 92       	st	X+, r1

00000394 <.do_clear_bss_start>:
     394:	ab 38       	cpi	r26, 0x8B	; 139
     396:	b2 07       	cpc	r27, r18
     398:	e1 f7       	brne	.-8      	; 0x392 <.do_clear_bss_loop>
     39a:	0e 94 a8 08 	call	0x1150	; 0x1150 <main>
     39e:	0c 94 ac 0d 	jmp	0x1b58	; 0x1b58 <_exit>

000003a2 <__bad_interrupt>:
     3a2:	0c 94 00 00 	jmp	0	; 0x0 <__vectors>

000003a6 <uart_receive>:
		joystick_pos_msg.data[3] = joystick.y_pos;
	}
		
	
	CAN_transmit(&joystick_pos_msg,0);
}
     3a6:	5f 9b       	sbis	0x0b, 7	; 11
     3a8:	03 c0       	rjmp	.+6      	; 0x3b0 <uart_receive+0xa>
     3aa:	8c b1       	in	r24, 0x0c	; 12
     3ac:	90 e0       	ldi	r25, 0x00	; 0
     3ae:	08 95       	ret
     3b0:	80 e0       	ldi	r24, 0x00	; 0
     3b2:	90 e0       	ldi	r25, 0x00	; 0
     3b4:	08 95       	ret

000003b6 <usart_putchar>:
     3b6:	5d 9b       	sbis	0x0b, 5	; 11
     3b8:	fe cf       	rjmp	.-4      	; 0x3b6 <usart_putchar>
     3ba:	8c b9       	out	0x0c, r24	; 12
     3bc:	08 95       	ret

000003be <usart_putchar_printf>:
     3be:	cf 93       	push	r28
     3c0:	c8 2f       	mov	r28, r24
     3c2:	8a 30       	cpi	r24, 0x0A	; 10
     3c4:	21 f4       	brne	.+8      	; 0x3ce <usart_putchar_printf+0x10>
     3c6:	8d e0       	ldi	r24, 0x0D	; 13
     3c8:	90 e0       	ldi	r25, 0x00	; 0
     3ca:	0e 94 db 01 	call	0x3b6	; 0x3b6 <usart_putchar>
     3ce:	8c 2f       	mov	r24, r28
     3d0:	90 e0       	ldi	r25, 0x00	; 0
     3d2:	0e 94 db 01 	call	0x3b6	; 0x3b6 <usart_putchar>
     3d6:	80 e0       	ldi	r24, 0x00	; 0
     3d8:	90 e0       	ldi	r25, 0x00	; 0
     3da:	cf 91       	pop	r28
     3dc:	08 95       	ret

000003de <uart_init>:
     3de:	10 bc       	out	0x20, r1	; 32
     3e0:	8f e1       	ldi	r24, 0x1F	; 31
     3e2:	89 b9       	out	0x09, r24	; 9
     3e4:	88 e1       	ldi	r24, 0x18	; 24
     3e6:	8a b9       	out	0x0a, r24	; 10
     3e8:	8e e8       	ldi	r24, 0x8E	; 142
     3ea:	80 bd       	out	0x20, r24	; 32
     3ec:	63 ed       	ldi	r22, 0xD3	; 211
     3ee:	71 e0       	ldi	r23, 0x01	; 1
     3f0:	8f ed       	ldi	r24, 0xDF	; 223
     3f2:	91 e0       	ldi	r25, 0x01	; 1
     3f4:	0e 94 0e 0a 	call	0x141c	; 0x141c <fdevopen>
     3f8:	08 95       	ret

000003fa <xmem_init>:
     3fa:	85 b7       	in	r24, 0x35	; 53
     3fc:	80 68       	ori	r24, 0x80	; 128
     3fe:	85 bf       	out	0x35, r24	; 53
     400:	80 b7       	in	r24, 0x30	; 48
     402:	80 62       	ori	r24, 0x20	; 32
     404:	80 bf       	out	0x30, r24	; 48
     406:	08 95       	ret

00000408 <xmem_write>:
     408:	fa 01       	movw	r30, r20
     40a:	e6 0f       	add	r30, r22
     40c:	f7 1f       	adc	r31, r23
     40e:	80 83       	st	Z, r24
     410:	08 95       	ret

00000412 <xmem_read>:
     412:	86 0f       	add	r24, r22
     414:	97 1f       	adc	r25, r23
     416:	fc 01       	movw	r30, r24
     418:	80 81       	ld	r24, Z
     41a:	08 95       	ret

0000041c <PWM_init>:
     41c:	81 b3       	in	r24, 0x11	; 17
     41e:	80 61       	ori	r24, 0x10	; 16
     420:	81 bb       	out	0x11, r24	; 17
     422:	eb e8       	ldi	r30, 0x8B	; 139
     424:	f0 e0       	ldi	r31, 0x00	; 0
     426:	80 81       	ld	r24, Z
     428:	80 64       	ori	r24, 0x40	; 64
     42a:	80 83       	st	Z, r24
     42c:	ea e8       	ldi	r30, 0x8A	; 138
     42e:	f0 e0       	ldi	r31, 0x00	; 0
     430:	80 81       	ld	r24, Z
     432:	89 60       	ori	r24, 0x09	; 9
     434:	80 83       	st	Z, r24
     436:	10 92 87 00 	sts	0x0087, r1	; 0x800087 <__TEXT_REGION_LENGTH__+0x7fc087>
     43a:	10 92 86 00 	sts	0x0086, r1	; 0x800086 <__TEXT_REGION_LENGTH__+0x7fc086>
     43e:	08 95       	ret

00000440 <ADC_init_read>:
     440:	40 e0       	ldi	r20, 0x00	; 0
     442:	54 e1       	ldi	r21, 0x14	; 20
     444:	61 e0       	ldi	r22, 0x01	; 1
     446:	70 e0       	ldi	r23, 0x00	; 0
     448:	80 e8       	ldi	r24, 0x80	; 128
     44a:	0e 94 04 02 	call	0x408	; 0x408 <xmem_write>
     44e:	08 95       	ret

00000450 <SPI_MasterInit>:
     450:	80 eb       	ldi	r24, 0xB0	; 176
     452:	87 bb       	out	0x17, r24	; 23
     454:	81 e5       	ldi	r24, 0x51	; 81
     456:	8d b9       	out	0x0d, r24	; 13
     458:	08 95       	ret

0000045a <SPI_MasterTransmit>:
     45a:	8f b9       	out	0x0f, r24	; 15
     45c:	77 9b       	sbis	0x0e, 7	; 14
     45e:	fe cf       	rjmp	.-4      	; 0x45c <SPI_MasterTransmit+0x2>
     460:	8f b1       	in	r24, 0x0f	; 15
     462:	08 95       	ret

00000464 <MCP2515_activate_slave>:
     464:	88 b3       	in	r24, 0x18	; 24
     466:	8f 7e       	andi	r24, 0xEF	; 239
     468:	88 bb       	out	0x18, r24	; 24
     46a:	08 95       	ret

0000046c <MCP2515_deactivate_slave>:
     46c:	88 b3       	in	r24, 0x18	; 24
     46e:	80 61       	ori	r24, 0x10	; 16
     470:	88 bb       	out	0x18, r24	; 24
     472:	08 95       	ret

00000474 <MCP2515_reset>:
     474:	0e 94 32 02 	call	0x464	; 0x464 <MCP2515_activate_slave>
     478:	80 ec       	ldi	r24, 0xC0	; 192
     47a:	0e 94 2d 02 	call	0x45a	; 0x45a <SPI_MasterTransmit>
     47e:	0e 94 36 02 	call	0x46c	; 0x46c <MCP2515_deactivate_slave>
     482:	08 95       	ret

00000484 <MCP2515_read>:
     484:	cf 93       	push	r28
     486:	c8 2f       	mov	r28, r24
     488:	0e 94 32 02 	call	0x464	; 0x464 <MCP2515_activate_slave>
     48c:	83 e0       	ldi	r24, 0x03	; 3
     48e:	0e 94 2d 02 	call	0x45a	; 0x45a <SPI_MasterTransmit>
     492:	8c 2f       	mov	r24, r28
     494:	0e 94 2d 02 	call	0x45a	; 0x45a <SPI_MasterTransmit>
     498:	80 e0       	ldi	r24, 0x00	; 0
     49a:	0e 94 2d 02 	call	0x45a	; 0x45a <SPI_MasterTransmit>
     49e:	c8 2f       	mov	r28, r24
     4a0:	0e 94 36 02 	call	0x46c	; 0x46c <MCP2515_deactivate_slave>
     4a4:	8c 2f       	mov	r24, r28
     4a6:	cf 91       	pop	r28
     4a8:	08 95       	ret

000004aa <MCP2515_write>:
     4aa:	cf 93       	push	r28
     4ac:	df 93       	push	r29
     4ae:	d8 2f       	mov	r29, r24
     4b0:	c6 2f       	mov	r28, r22
     4b2:	0e 94 32 02 	call	0x464	; 0x464 <MCP2515_activate_slave>
     4b6:	82 e0       	ldi	r24, 0x02	; 2
     4b8:	0e 94 2d 02 	call	0x45a	; 0x45a <SPI_MasterTransmit>
     4bc:	8d 2f       	mov	r24, r29
     4be:	0e 94 2d 02 	call	0x45a	; 0x45a <SPI_MasterTransmit>
     4c2:	8c 2f       	mov	r24, r28
     4c4:	0e 94 2d 02 	call	0x45a	; 0x45a <SPI_MasterTransmit>
     4c8:	0e 94 36 02 	call	0x46c	; 0x46c <MCP2515_deactivate_slave>
     4cc:	df 91       	pop	r29
     4ce:	cf 91       	pop	r28
     4d0:	08 95       	ret

000004d2 <MCP2515_request_to_send>:
     4d2:	cf 93       	push	r28
     4d4:	c8 2f       	mov	r28, r24
     4d6:	0e 94 32 02 	call	0x464	; 0x464 <MCP2515_activate_slave>
     4da:	8c 2f       	mov	r24, r28
     4dc:	0e 94 2d 02 	call	0x45a	; 0x45a <SPI_MasterTransmit>
     4e0:	0e 94 36 02 	call	0x46c	; 0x46c <MCP2515_deactivate_slave>
     4e4:	cf 91       	pop	r28
     4e6:	08 95       	ret

000004e8 <MCP2515_bit_modify>:
     4e8:	1f 93       	push	r17
     4ea:	cf 93       	push	r28
     4ec:	df 93       	push	r29
     4ee:	18 2f       	mov	r17, r24
     4f0:	d6 2f       	mov	r29, r22
     4f2:	c4 2f       	mov	r28, r20
     4f4:	0e 94 32 02 	call	0x464	; 0x464 <MCP2515_activate_slave>
     4f8:	85 e0       	ldi	r24, 0x05	; 5
     4fa:	0e 94 2d 02 	call	0x45a	; 0x45a <SPI_MasterTransmit>
     4fe:	81 2f       	mov	r24, r17
     500:	0e 94 2d 02 	call	0x45a	; 0x45a <SPI_MasterTransmit>
     504:	8d 2f       	mov	r24, r29
     506:	0e 94 2d 02 	call	0x45a	; 0x45a <SPI_MasterTransmit>
     50a:	8c 2f       	mov	r24, r28
     50c:	0e 94 2d 02 	call	0x45a	; 0x45a <SPI_MasterTransmit>
     510:	0e 94 36 02 	call	0x46c	; 0x46c <MCP2515_deactivate_slave>
     514:	df 91       	pop	r29
     516:	cf 91       	pop	r28
     518:	1f 91       	pop	r17
     51a:	08 95       	ret

0000051c <MCP2515_init>:
     51c:	0e 94 28 02 	call	0x450	; 0x450 <SPI_MasterInit>
     520:	0e 94 3a 02 	call	0x474	; 0x474 <MCP2515_reset>
     524:	40 e8       	ldi	r20, 0x80	; 128
     526:	60 ee       	ldi	r22, 0xE0	; 224
     528:	8f e0       	ldi	r24, 0x0F	; 15
     52a:	0e 94 74 02 	call	0x4e8	; 0x4e8 <MCP2515_bit_modify>
     52e:	8e e0       	ldi	r24, 0x0E	; 14
     530:	0e 94 42 02 	call	0x484	; 0x484 <MCP2515_read>
     534:	80 7e       	andi	r24, 0xE0	; 224
     536:	80 38       	cpi	r24, 0x80	; 128
     538:	31 f0       	breq	.+12     	; 0x546 <MCP2515_init+0x2a>
     53a:	89 ef       	ldi	r24, 0xF9	; 249
     53c:	91 e0       	ldi	r25, 0x01	; 1
     53e:	0e 94 6f 0a 	call	0x14de	; 0x14de <puts>
     542:	81 e0       	ldi	r24, 0x01	; 1
     544:	08 95       	ret
     546:	45 e0       	ldi	r20, 0x05	; 5
     548:	6f ef       	ldi	r22, 0xFF	; 255
     54a:	88 e2       	ldi	r24, 0x28	; 40
     54c:	0e 94 74 02 	call	0x4e8	; 0x4e8 <MCP2515_bit_modify>
     550:	41 eb       	ldi	r20, 0xB1	; 177
     552:	6f ef       	ldi	r22, 0xFF	; 255
     554:	89 e2       	ldi	r24, 0x29	; 41
     556:	0e 94 74 02 	call	0x4e8	; 0x4e8 <MCP2515_bit_modify>
     55a:	43 e0       	ldi	r20, 0x03	; 3
     55c:	6f ef       	ldi	r22, 0xFF	; 255
     55e:	8a e2       	ldi	r24, 0x2A	; 42
     560:	0e 94 74 02 	call	0x4e8	; 0x4e8 <MCP2515_bit_modify>
     564:	40 e0       	ldi	r20, 0x00	; 0
     566:	60 ee       	ldi	r22, 0xE0	; 224
     568:	8f e0       	ldi	r24, 0x0F	; 15
     56a:	0e 94 74 02 	call	0x4e8	; 0x4e8 <MCP2515_bit_modify>
     56e:	43 e0       	ldi	r20, 0x03	; 3
     570:	63 e0       	ldi	r22, 0x03	; 3
     572:	8b e2       	ldi	r24, 0x2B	; 43
     574:	0e 94 74 02 	call	0x4e8	; 0x4e8 <MCP2515_bit_modify>
     578:	80 e0       	ldi	r24, 0x00	; 0
     57a:	08 95       	ret

0000057c <set_msg_id>:
     57c:	fc 01       	movw	r30, r24
     57e:	71 83       	std	Z+1, r23	; 0x01
     580:	60 83       	st	Z, r22
     582:	08 95       	ret

00000584 <set_msg_length>:
     584:	fc 01       	movw	r30, r24
     586:	62 83       	std	Z+2, r22	; 0x02
     588:	08 95       	ret

0000058a <CAN_transmit>:
     58a:	cf 92       	push	r12
     58c:	df 92       	push	r13
     58e:	ef 92       	push	r14
     590:	ff 92       	push	r15
     592:	0f 93       	push	r16
     594:	1f 93       	push	r17
     596:	cf 93       	push	r28
     598:	df 93       	push	r29
     59a:	7c 01       	movw	r14, r24
     59c:	fc 01       	movw	r30, r24
     59e:	80 81       	ld	r24, Z
     5a0:	91 81       	ldd	r25, Z+1	; 0x01
     5a2:	c8 2f       	mov	r28, r24
     5a4:	c2 95       	swap	r28
     5a6:	cc 0f       	add	r28, r28
     5a8:	c0 7e       	andi	r28, 0xE0	; 224
     5aa:	9c 01       	movw	r18, r24
     5ac:	36 95       	lsr	r19
     5ae:	27 95       	ror	r18
     5b0:	36 95       	lsr	r19
     5b2:	27 95       	ror	r18
     5b4:	36 95       	lsr	r19
     5b6:	27 95       	ror	r18
     5b8:	12 81       	ldd	r17, Z+2	; 0x02
     5ba:	66 23       	and	r22, r22
     5bc:	71 f0       	breq	.+28     	; 0x5da <CAN_transmit+0x50>
     5be:	61 30       	cpi	r22, 0x01	; 1
     5c0:	c1 f4       	brne	.+48     	; 0x5f2 <CAN_transmit+0x68>
     5c2:	0f 2e       	mov	r0, r31
     5c4:	f2 e8       	ldi	r31, 0x82	; 130
     5c6:	df 2e       	mov	r13, r31
     5c8:	f0 2d       	mov	r31, r0
     5ca:	06 e4       	ldi	r16, 0x46	; 70
     5cc:	d5 e4       	ldi	r29, 0x45	; 69
     5ce:	0f 2e       	mov	r0, r31
     5d0:	f2 e4       	ldi	r31, 0x42	; 66
     5d2:	cf 2e       	mov	r12, r31
     5d4:	f0 2d       	mov	r31, r0
     5d6:	81 e4       	ldi	r24, 0x41	; 65
     5d8:	17 c0       	rjmp	.+46     	; 0x608 <CAN_transmit+0x7e>
     5da:	0f 2e       	mov	r0, r31
     5dc:	f1 e8       	ldi	r31, 0x81	; 129
     5de:	df 2e       	mov	r13, r31
     5e0:	f0 2d       	mov	r31, r0
     5e2:	06 e3       	ldi	r16, 0x36	; 54
     5e4:	d5 e3       	ldi	r29, 0x35	; 53
     5e6:	0f 2e       	mov	r0, r31
     5e8:	f2 e3       	ldi	r31, 0x32	; 50
     5ea:	cf 2e       	mov	r12, r31
     5ec:	f0 2d       	mov	r31, r0
     5ee:	81 e3       	ldi	r24, 0x31	; 49
     5f0:	0b c0       	rjmp	.+22     	; 0x608 <CAN_transmit+0x7e>
     5f2:	0f 2e       	mov	r0, r31
     5f4:	f4 e8       	ldi	r31, 0x84	; 132
     5f6:	df 2e       	mov	r13, r31
     5f8:	f0 2d       	mov	r31, r0
     5fa:	06 e5       	ldi	r16, 0x56	; 86
     5fc:	d5 e5       	ldi	r29, 0x55	; 85
     5fe:	0f 2e       	mov	r0, r31
     600:	f2 e5       	ldi	r31, 0x52	; 82
     602:	cf 2e       	mov	r12, r31
     604:	f0 2d       	mov	r31, r0
     606:	81 e5       	ldi	r24, 0x51	; 81
     608:	62 2f       	mov	r22, r18
     60a:	0e 94 55 02 	call	0x4aa	; 0x4aa <MCP2515_write>
     60e:	6c 2f       	mov	r22, r28
     610:	8c 2d       	mov	r24, r12
     612:	0e 94 55 02 	call	0x4aa	; 0x4aa <MCP2515_write>
     616:	61 2f       	mov	r22, r17
     618:	8d 2f       	mov	r24, r29
     61a:	0e 94 55 02 	call	0x4aa	; 0x4aa <MCP2515_write>
     61e:	c0 e0       	ldi	r28, 0x00	; 0
     620:	d0 e0       	ldi	r29, 0x00	; 0
     622:	09 c0       	rjmp	.+18     	; 0x636 <CAN_transmit+0xac>
     624:	f7 01       	movw	r30, r14
     626:	ec 0f       	add	r30, r28
     628:	fd 1f       	adc	r31, r29
     62a:	63 81       	ldd	r22, Z+3	; 0x03
     62c:	8c 2f       	mov	r24, r28
     62e:	80 0f       	add	r24, r16
     630:	0e 94 55 02 	call	0x4aa	; 0x4aa <MCP2515_write>
     634:	21 96       	adiw	r28, 0x01	; 1
     636:	81 2f       	mov	r24, r17
     638:	90 e0       	ldi	r25, 0x00	; 0
     63a:	c8 17       	cp	r28, r24
     63c:	d9 07       	cpc	r29, r25
     63e:	94 f3       	brlt	.-28     	; 0x624 <CAN_transmit+0x9a>
     640:	8d 2d       	mov	r24, r13
     642:	0e 94 69 02 	call	0x4d2	; 0x4d2 <MCP2515_request_to_send>
     646:	df 91       	pop	r29
     648:	cf 91       	pop	r28
     64a:	1f 91       	pop	r17
     64c:	0f 91       	pop	r16
     64e:	ff 90       	pop	r15
     650:	ef 90       	pop	r14
     652:	df 90       	pop	r13
     654:	cf 90       	pop	r12
     656:	08 95       	ret

00000658 <CAN_receive>:
     658:	ef 92       	push	r14
     65a:	ff 92       	push	r15
     65c:	0f 93       	push	r16
     65e:	1f 93       	push	r17
     660:	cf 93       	push	r28
     662:	7c 01       	movw	r14, r24
     664:	8c e2       	ldi	r24, 0x2C	; 44
     666:	0e 94 42 02 	call	0x484	; 0x484 <MCP2515_read>
     66a:	c8 2f       	mov	r28, r24
     66c:	c2 70       	andi	r28, 0x02	; 2
     66e:	81 ff       	sbrs	r24, 1
     670:	05 c0       	rjmp	.+10     	; 0x67c <CAN_receive+0x24>
     672:	40 e0       	ldi	r20, 0x00	; 0
     674:	62 e0       	ldi	r22, 0x02	; 2
     676:	8c e2       	ldi	r24, 0x2C	; 44
     678:	0e 94 74 02 	call	0x4e8	; 0x4e8 <MCP2515_bit_modify>
     67c:	cc 23       	and	r28, r28
     67e:	61 f1       	breq	.+88     	; 0x6d8 <CAN_receive+0x80>
     680:	81 e7       	ldi	r24, 0x71	; 113
     682:	0e 94 42 02 	call	0x484	; 0x484 <MCP2515_read>
     686:	c8 2f       	mov	r28, r24
     688:	cc 0f       	add	r28, r28
     68a:	cc 0f       	add	r28, r28
     68c:	cc 0f       	add	r28, r28
     68e:	82 e7       	ldi	r24, 0x72	; 114
     690:	0e 94 42 02 	call	0x484	; 0x484 <MCP2515_read>
     694:	82 95       	swap	r24
     696:	86 95       	lsr	r24
     698:	87 70       	andi	r24, 0x07	; 7
     69a:	8c 2b       	or	r24, r28
     69c:	68 2f       	mov	r22, r24
     69e:	70 e0       	ldi	r23, 0x00	; 0
     6a0:	c7 01       	movw	r24, r14
     6a2:	0e 94 be 02 	call	0x57c	; 0x57c <set_msg_id>
     6a6:	85 e7       	ldi	r24, 0x75	; 117
     6a8:	0e 94 42 02 	call	0x484	; 0x484 <MCP2515_read>
     6ac:	68 2f       	mov	r22, r24
     6ae:	6f 70       	andi	r22, 0x0F	; 15
     6b0:	c7 01       	movw	r24, r14
     6b2:	0e 94 c2 02 	call	0x584	; 0x584 <set_msg_length>
     6b6:	c0 e0       	ldi	r28, 0x00	; 0
     6b8:	0b c0       	rjmp	.+22     	; 0x6d0 <CAN_receive+0x78>
     6ba:	0c 2f       	mov	r16, r28
     6bc:	10 e0       	ldi	r17, 0x00	; 0
     6be:	86 e7       	ldi	r24, 0x76	; 118
     6c0:	8c 0f       	add	r24, r28
     6c2:	0e 94 42 02 	call	0x484	; 0x484 <MCP2515_read>
     6c6:	f7 01       	movw	r30, r14
     6c8:	e0 0f       	add	r30, r16
     6ca:	f1 1f       	adc	r31, r17
     6cc:	83 83       	std	Z+3, r24	; 0x03
     6ce:	cf 5f       	subi	r28, 0xFF	; 255
     6d0:	f7 01       	movw	r30, r14
     6d2:	82 81       	ldd	r24, Z+2	; 0x02
     6d4:	c8 17       	cp	r28, r24
     6d6:	88 f3       	brcs	.-30     	; 0x6ba <CAN_receive+0x62>
     6d8:	cf 91       	pop	r28
     6da:	1f 91       	pop	r17
     6dc:	0f 91       	pop	r16
     6de:	ff 90       	pop	r15
     6e0:	ef 90       	pop	r14
     6e2:	08 95       	ret

000006e4 <get_joypos>:
     6e4:	0f 93       	push	r16
     6e6:	1f 93       	push	r17
     6e8:	cf 93       	push	r28
     6ea:	df 93       	push	r29
     6ec:	00 d0       	rcall	.+0      	; 0x6ee <get_joypos+0xa>
     6ee:	00 d0       	rcall	.+0      	; 0x6f0 <get_joypos+0xc>
     6f0:	00 d0       	rcall	.+0      	; 0x6f2 <get_joypos+0xe>
     6f2:	cd b7       	in	r28, 0x3d	; 61
     6f4:	de b7       	in	r29, 0x3e	; 62
     6f6:	0e 94 20 02 	call	0x440	; 0x440 <ADC_init_read>
     6fa:	60 e0       	ldi	r22, 0x00	; 0
     6fc:	74 e1       	ldi	r23, 0x14	; 20
     6fe:	80 e0       	ldi	r24, 0x00	; 0
     700:	90 e0       	ldi	r25, 0x00	; 0
     702:	0e 94 09 02 	call	0x412	; 0x412 <xmem_read>
     706:	04 e7       	ldi	r16, 0x74	; 116
     708:	13 e0       	ldi	r17, 0x03	; 3
     70a:	f8 01       	movw	r30, r16
     70c:	80 83       	st	Z, r24
     70e:	60 e0       	ldi	r22, 0x00	; 0
     710:	74 e1       	ldi	r23, 0x14	; 20
     712:	80 e0       	ldi	r24, 0x00	; 0
     714:	90 e0       	ldi	r25, 0x00	; 0
     716:	0e 94 09 02 	call	0x412	; 0x412 <xmem_read>
     71a:	f8 01       	movw	r30, r16
     71c:	81 83       	std	Z+1, r24	; 0x01
     71e:	60 e0       	ldi	r22, 0x00	; 0
     720:	74 e1       	ldi	r23, 0x14	; 20
     722:	80 e0       	ldi	r24, 0x00	; 0
     724:	90 e0       	ldi	r25, 0x00	; 0
     726:	0e 94 09 02 	call	0x412	; 0x412 <xmem_read>
     72a:	60 e0       	ldi	r22, 0x00	; 0
     72c:	74 e1       	ldi	r23, 0x14	; 20
     72e:	80 e0       	ldi	r24, 0x00	; 0
     730:	90 e0       	ldi	r25, 0x00	; 0
     732:	0e 94 09 02 	call	0x412	; 0x412 <xmem_read>
     736:	81 ee       	ldi	r24, 0xE1	; 225
     738:	94 e0       	ldi	r25, 0x04	; 4
     73a:	01 97       	sbiw	r24, 0x01	; 1
     73c:	f1 f7       	brne	.-4      	; 0x73a <get_joypos+0x56>
     73e:	00 c0       	rjmp	.+0      	; 0x740 <get_joypos+0x5c>
     740:	00 00       	nop
     742:	f8 01       	movw	r30, r16
     744:	80 81       	ld	r24, Z
     746:	9f e5       	ldi	r25, 0x5F	; 95
     748:	98 0f       	add	r25, r24
     74a:	9e 30       	cpi	r25, 0x0E	; 14
     74c:	30 f4       	brcc	.+12     	; 0x75a <get_joypos+0x76>
     74e:	10 82       	st	Z, r1
     750:	85 e8       	ldi	r24, 0x85	; 133
     752:	92 e0       	ldi	r25, 0x02	; 2
     754:	93 83       	std	Z+3, r25	; 0x03
     756:	82 83       	std	Z+2, r24	; 0x02
     758:	32 c0       	rjmp	.+100    	; 0x7be <get_joypos+0xda>
     75a:	80 3a       	cpi	r24, 0xA0	; 160
     75c:	88 f4       	brcc	.+34     	; 0x780 <get_joypos+0x9c>
     75e:	f4 e6       	ldi	r31, 0x64	; 100
     760:	8f 9f       	mul	r24, r31
     762:	c0 01       	movw	r24, r0
     764:	11 24       	eor	r1, r1
     766:	66 ea       	ldi	r22, 0xA6	; 166
     768:	70 e0       	ldi	r23, 0x00	; 0
     76a:	0e 94 c5 08 	call	0x118a	; 0x118a <__divmodhi4>
     76e:	e4 e7       	ldi	r30, 0x74	; 116
     770:	f3 e0       	ldi	r31, 0x03	; 3
     772:	64 56       	subi	r22, 0x64	; 100
     774:	60 83       	st	Z, r22
     776:	8d e8       	ldi	r24, 0x8D	; 141
     778:	92 e0       	ldi	r25, 0x02	; 2
     77a:	93 83       	std	Z+3, r25	; 0x03
     77c:	82 83       	std	Z+2, r24	; 0x02
     77e:	1f c0       	rjmp	.+62     	; 0x7be <get_joypos+0xda>
     780:	8f 3a       	cpi	r24, 0xAF	; 175
     782:	b0 f0       	brcs	.+44     	; 0x7b0 <get_joypos+0xcc>
     784:	28 2f       	mov	r18, r24
     786:	30 e0       	ldi	r19, 0x00	; 0
     788:	2a 5a       	subi	r18, 0xAA	; 170
     78a:	31 09       	sbc	r19, r1
     78c:	44 e6       	ldi	r20, 0x64	; 100
     78e:	42 9f       	mul	r20, r18
     790:	c0 01       	movw	r24, r0
     792:	43 9f       	mul	r20, r19
     794:	90 0d       	add	r25, r0
     796:	11 24       	eor	r1, r1
     798:	65 e5       	ldi	r22, 0x55	; 85
     79a:	70 e0       	ldi	r23, 0x00	; 0
     79c:	0e 94 c5 08 	call	0x118a	; 0x118a <__divmodhi4>
     7a0:	e4 e7       	ldi	r30, 0x74	; 116
     7a2:	f3 e0       	ldi	r31, 0x03	; 3
     7a4:	60 83       	st	Z, r22
     7a6:	82 e9       	ldi	r24, 0x92	; 146
     7a8:	92 e0       	ldi	r25, 0x02	; 2
     7aa:	93 83       	std	Z+3, r25	; 0x03
     7ac:	82 83       	std	Z+2, r24	; 0x02
     7ae:	07 c0       	rjmp	.+14     	; 0x7be <get_joypos+0xda>
     7b0:	e4 e7       	ldi	r30, 0x74	; 116
     7b2:	f3 e0       	ldi	r31, 0x03	; 3
     7b4:	10 82       	st	Z, r1
     7b6:	88 e9       	ldi	r24, 0x98	; 152
     7b8:	92 e0       	ldi	r25, 0x02	; 2
     7ba:	93 83       	std	Z+3, r25	; 0x03
     7bc:	82 83       	std	Z+2, r24	; 0x02
     7be:	80 91 75 03 	lds	r24, 0x0375	; 0x800375 <joystick+0x1>
     7c2:	94 e6       	ldi	r25, 0x64	; 100
     7c4:	98 0f       	add	r25, r24
     7c6:	9e 30       	cpi	r25, 0x0E	; 14
     7c8:	40 f4       	brcc	.+16     	; 0x7da <get_joypos+0xf6>
     7ca:	e4 e7       	ldi	r30, 0x74	; 116
     7cc:	f3 e0       	ldi	r31, 0x03	; 3
     7ce:	11 82       	std	Z+1, r1	; 0x01
     7d0:	85 e8       	ldi	r24, 0x85	; 133
     7d2:	92 e0       	ldi	r25, 0x02	; 2
     7d4:	95 83       	std	Z+5, r25	; 0x05
     7d6:	84 83       	std	Z+4, r24	; 0x04
     7d8:	32 c0       	rjmp	.+100    	; 0x83e <get_joypos+0x15a>
     7da:	8c 39       	cpi	r24, 0x9C	; 156
     7dc:	88 f4       	brcc	.+34     	; 0x800 <get_joypos+0x11c>
     7de:	24 e6       	ldi	r18, 0x64	; 100
     7e0:	82 9f       	mul	r24, r18
     7e2:	c0 01       	movw	r24, r0
     7e4:	11 24       	eor	r1, r1
     7e6:	66 ea       	ldi	r22, 0xA6	; 166
     7e8:	70 e0       	ldi	r23, 0x00	; 0
     7ea:	0e 94 c5 08 	call	0x118a	; 0x118a <__divmodhi4>
     7ee:	e4 e7       	ldi	r30, 0x74	; 116
     7f0:	f3 e0       	ldi	r31, 0x03	; 3
     7f2:	64 56       	subi	r22, 0x64	; 100
     7f4:	61 83       	std	Z+1, r22	; 0x01
     7f6:	8c e9       	ldi	r24, 0x9C	; 156
     7f8:	92 e0       	ldi	r25, 0x02	; 2
     7fa:	95 83       	std	Z+5, r25	; 0x05
     7fc:	84 83       	std	Z+4, r24	; 0x04
     7fe:	1f c0       	rjmp	.+62     	; 0x83e <get_joypos+0x15a>
     800:	8a 3a       	cpi	r24, 0xAA	; 170
     802:	b0 f0       	brcs	.+44     	; 0x830 <get_joypos+0x14c>
     804:	28 2f       	mov	r18, r24
     806:	30 e0       	ldi	r19, 0x00	; 0
     808:	2a 5a       	subi	r18, 0xAA	; 170
     80a:	31 09       	sbc	r19, r1
     80c:	44 e6       	ldi	r20, 0x64	; 100
     80e:	42 9f       	mul	r20, r18
     810:	c0 01       	movw	r24, r0
     812:	43 9f       	mul	r20, r19
     814:	90 0d       	add	r25, r0
     816:	11 24       	eor	r1, r1
     818:	65 e5       	ldi	r22, 0x55	; 85
     81a:	70 e0       	ldi	r23, 0x00	; 0
     81c:	0e 94 c5 08 	call	0x118a	; 0x118a <__divmodhi4>
     820:	e4 e7       	ldi	r30, 0x74	; 116
     822:	f3 e0       	ldi	r31, 0x03	; 3
     824:	61 83       	std	Z+1, r22	; 0x01
     826:	81 ea       	ldi	r24, 0xA1	; 161
     828:	92 e0       	ldi	r25, 0x02	; 2
     82a:	95 83       	std	Z+5, r25	; 0x05
     82c:	84 83       	std	Z+4, r24	; 0x04
     82e:	07 c0       	rjmp	.+14     	; 0x83e <get_joypos+0x15a>
     830:	e4 e7       	ldi	r30, 0x74	; 116
     832:	f3 e0       	ldi	r31, 0x03	; 3
     834:	11 82       	std	Z+1, r1	; 0x01
     836:	88 e9       	ldi	r24, 0x98	; 152
     838:	92 e0       	ldi	r25, 0x02	; 2
     83a:	95 83       	std	Z+5, r25	; 0x05
     83c:	84 83       	std	Z+4, r24	; 0x04
     83e:	86 e0       	ldi	r24, 0x06	; 6
     840:	e4 e7       	ldi	r30, 0x74	; 116
     842:	f3 e0       	ldi	r31, 0x03	; 3
     844:	de 01       	movw	r26, r28
     846:	11 96       	adiw	r26, 0x01	; 1
     848:	01 90       	ld	r0, Z+
     84a:	0d 92       	st	X+, r0
     84c:	8a 95       	dec	r24
     84e:	e1 f7       	brne	.-8      	; 0x848 <get_joypos+0x164>
     850:	29 81       	ldd	r18, Y+1	; 0x01
     852:	3a 81       	ldd	r19, Y+2	; 0x02
     854:	4b 81       	ldd	r20, Y+3	; 0x03
     856:	5c 81       	ldd	r21, Y+4	; 0x04
     858:	6d 81       	ldd	r22, Y+5	; 0x05
     85a:	7e 81       	ldd	r23, Y+6	; 0x06
     85c:	80 e0       	ldi	r24, 0x00	; 0
     85e:	90 e0       	ldi	r25, 0x00	; 0
     860:	26 96       	adiw	r28, 0x06	; 6
     862:	0f b6       	in	r0, 0x3f	; 63
     864:	f8 94       	cli
     866:	de bf       	out	0x3e, r29	; 62
     868:	0f be       	out	0x3f, r0	; 63
     86a:	cd bf       	out	0x3d, r28	; 61
     86c:	df 91       	pop	r29
     86e:	cf 91       	pop	r28
     870:	1f 91       	pop	r17
     872:	0f 91       	pop	r16
     874:	08 95       	ret

00000876 <get_sliderpos>:
     876:	ef 92       	push	r14
     878:	ff 92       	push	r15
     87a:	0f 93       	push	r16
     87c:	1f 93       	push	r17
     87e:	cf 93       	push	r28
     880:	0e 94 20 02 	call	0x440	; 0x440 <ADC_init_read>
     884:	60 e0       	ldi	r22, 0x00	; 0
     886:	74 e1       	ldi	r23, 0x14	; 20
     888:	80 e0       	ldi	r24, 0x00	; 0
     88a:	90 e0       	ldi	r25, 0x00	; 0
     88c:	0e 94 09 02 	call	0x412	; 0x412 <xmem_read>
     890:	60 e0       	ldi	r22, 0x00	; 0
     892:	74 e1       	ldi	r23, 0x14	; 20
     894:	80 e0       	ldi	r24, 0x00	; 0
     896:	90 e0       	ldi	r25, 0x00	; 0
     898:	0e 94 09 02 	call	0x412	; 0x412 <xmem_read>
     89c:	60 e0       	ldi	r22, 0x00	; 0
     89e:	74 e1       	ldi	r23, 0x14	; 20
     8a0:	80 e0       	ldi	r24, 0x00	; 0
     8a2:	90 e0       	ldi	r25, 0x00	; 0
     8a4:	0e 94 09 02 	call	0x412	; 0x412 <xmem_read>
     8a8:	c4 e6       	ldi	r28, 0x64	; 100
     8aa:	c8 9f       	mul	r28, r24
     8ac:	c0 01       	movw	r24, r0
     8ae:	11 24       	eor	r1, r1
     8b0:	ee 24       	eor	r14, r14
     8b2:	ea 94       	dec	r14
     8b4:	f1 2c       	mov	r15, r1
     8b6:	b7 01       	movw	r22, r14
     8b8:	0e 94 c5 08 	call	0x118a	; 0x118a <__divmodhi4>
     8bc:	0f e5       	ldi	r16, 0x5F	; 95
     8be:	13 e0       	ldi	r17, 0x03	; 3
     8c0:	f8 01       	movw	r30, r16
     8c2:	60 83       	st	Z, r22
     8c4:	60 e0       	ldi	r22, 0x00	; 0
     8c6:	74 e1       	ldi	r23, 0x14	; 20
     8c8:	80 e0       	ldi	r24, 0x00	; 0
     8ca:	90 e0       	ldi	r25, 0x00	; 0
     8cc:	0e 94 09 02 	call	0x412	; 0x412 <xmem_read>
     8d0:	c8 9f       	mul	r28, r24
     8d2:	c0 01       	movw	r24, r0
     8d4:	11 24       	eor	r1, r1
     8d6:	b7 01       	movw	r22, r14
     8d8:	0e 94 c5 08 	call	0x118a	; 0x118a <__divmodhi4>
     8dc:	f8 01       	movw	r30, r16
     8de:	61 83       	std	Z+1, r22	; 0x01
     8e0:	81 ee       	ldi	r24, 0xE1	; 225
     8e2:	94 e0       	ldi	r25, 0x04	; 4
     8e4:	01 97       	sbiw	r24, 0x01	; 1
     8e6:	f1 f7       	brne	.-4      	; 0x8e4 <get_sliderpos+0x6e>
     8e8:	00 c0       	rjmp	.+0      	; 0x8ea <get_sliderpos+0x74>
     8ea:	00 00       	nop
     8ec:	80 91 5f 03 	lds	r24, 0x035F	; 0x80035f <slider>
     8f0:	90 91 60 03 	lds	r25, 0x0360	; 0x800360 <slider+0x1>
     8f4:	cf 91       	pop	r28
     8f6:	1f 91       	pop	r17
     8f8:	0f 91       	pop	r16
     8fa:	ff 90       	pop	r15
     8fc:	ef 90       	pop	r14
     8fe:	08 95       	ret

00000900 <button_init>:

void button_init(){
	PORTB= 1<<PB0;
     900:	81 e0       	ldi	r24, 0x01	; 1
     902:	88 bb       	out	0x18, r24	; 24
	DDRB &= ~(1<< DDB0);
     904:	87 b3       	in	r24, 0x17	; 23
     906:	8e 7f       	andi	r24, 0xFE	; 254
     908:	87 bb       	out	0x17, r24	; 23
     90a:	08 95       	ret

0000090c <button_status>:
	
}

uint8_t button_status(){

	uint8_t value=PINB & 0x1;
     90c:	86 b3       	in	r24, 0x16	; 22
	return value;	
}
     90e:	81 70       	andi	r24, 0x01	; 1
     910:	08 95       	ret

00000912 <CAN_send_slider>:

void CAN_send_slider(){
     912:	1f 93       	push	r17
     914:	cf 93       	push	r28
     916:	df 93       	push	r29
     918:	cd b7       	in	r28, 0x3d	; 61
     91a:	de b7       	in	r29, 0x3e	; 62
     91c:	2b 97       	sbiw	r28, 0x0b	; 11
     91e:	0f b6       	in	r0, 0x3f	; 63
     920:	f8 94       	cli
     922:	de bf       	out	0x3e, r29	; 62
     924:	0f be       	out	0x3f, r0	; 63
     926:	cd bf       	out	0x3d, r28	; 61
	slider = get_sliderpos();
     928:	0e 94 3b 04 	call	0x876	; 0x876 <get_sliderpos>
     92c:	90 93 60 03 	sts	0x0360, r25	; 0x800360 <slider+0x1>
     930:	80 93 5f 03 	sts	0x035F, r24	; 0x80035f <slider>
	uint8_t button=button_status();
     934:	0e 94 86 04 	call	0x90c	; 0x90c <button_status>
     938:	18 2f       	mov	r17, r24

	CAN_message slider_pos_msg;
	
	set_msg_id(&slider_pos_msg ,1);
     93a:	61 e0       	ldi	r22, 0x01	; 1
     93c:	70 e0       	ldi	r23, 0x00	; 0
     93e:	ce 01       	movw	r24, r28
     940:	01 96       	adiw	r24, 0x01	; 1
     942:	0e 94 be 02 	call	0x57c	; 0x57c <set_msg_id>
	set_msg_length(&slider_pos_msg, 3);
     946:	63 e0       	ldi	r22, 0x03	; 3
     948:	ce 01       	movw	r24, r28
     94a:	01 96       	adiw	r24, 0x01	; 1
     94c:	0e 94 c2 02 	call	0x584	; 0x584 <set_msg_length>
	
	slider_pos_msg.data[0] =slider.left;
     950:	ef e5       	ldi	r30, 0x5F	; 95
     952:	f3 e0       	ldi	r31, 0x03	; 3
     954:	80 81       	ld	r24, Z
     956:	8c 83       	std	Y+4, r24	; 0x04
	slider_pos_msg.data[1] =slider.right;
     958:	81 81       	ldd	r24, Z+1	; 0x01
     95a:	8d 83       	std	Y+5, r24	; 0x05
	slider_pos_msg.data[2] =button;
     95c:	1e 83       	std	Y+6, r17	; 0x06
	
	CAN_transmit(&slider_pos_msg,0);
     95e:	60 e0       	ldi	r22, 0x00	; 0
     960:	ce 01       	movw	r24, r28
     962:	01 96       	adiw	r24, 0x01	; 1
     964:	0e 94 c5 02 	call	0x58a	; 0x58a <CAN_transmit>
     968:	2b 96       	adiw	r28, 0x0b	; 11
     96a:	0f b6       	in	r0, 0x3f	; 63
     96c:	f8 94       	cli
     96e:	de bf       	out	0x3e, r29	; 62
     970:	0f be       	out	0x3f, r0	; 63
     972:	cd bf       	out	0x3d, r28	; 61
     974:	df 91       	pop	r29
     976:	cf 91       	pop	r28
     978:	1f 91       	pop	r17
     97a:	08 95       	ret

0000097c <OLED_write_command>:
#define FONTSIZE 8

void OLED_write_command(uint8_t command) //volatile
{
	volatile char* base_addr=BASE_ADDRESS_OLED_COMMAND;
	base_addr[0]=command;
     97c:	80 93 00 10 	sts	0x1000, r24	; 0x801000 <__bss_end+0xc75>
     980:	08 95       	ret

00000982 <OLED_write_data>:


void OLED_write_data(uint8_t data) //volatile
{
	volatile char* base_addr=BASE_ADDRESS_OLED_DATA;
	base_addr[0]=data;
     982:	80 93 00 12 	sts	0x1200, r24	; 0x801200 <__bss_end+0xe75>
     986:	08 95       	ret

00000988 <OLED_init>:
}

void OLED_init()
 {
	OLED_write_command(0xae); // display off
     988:	8e ea       	ldi	r24, 0xAE	; 174
     98a:	0e 94 be 04 	call	0x97c	; 0x97c <OLED_write_command>
	OLED_write_command(0xa1); //segment remap
     98e:	81 ea       	ldi	r24, 0xA1	; 161
     990:	0e 94 be 04 	call	0x97c	; 0x97c <OLED_write_command>
	OLED_write_command(0Xda); //common pads hardware: alternative
     994:	8a ed       	ldi	r24, 0xDA	; 218
     996:	0e 94 be 04 	call	0x97c	; 0x97c <OLED_write_command>
	OLED_write_command(0x12);
     99a:	82 e1       	ldi	r24, 0x12	; 18
     99c:	0e 94 be 04 	call	0x97c	; 0x97c <OLED_write_command>
	OLED_write_command(0xc8); //common output scan direction:com63~com0
     9a0:	88 ec       	ldi	r24, 0xC8	; 200
     9a2:	0e 94 be 04 	call	0x97c	; 0x97c <OLED_write_command>
	OLED_write_command(0xa8); //multiplex ration mode:63
     9a6:	88 ea       	ldi	r24, 0xA8	; 168
     9a8:	0e 94 be 04 	call	0x97c	; 0x97c <OLED_write_command>
	OLED_write_command(0x3f);
     9ac:	8f e3       	ldi	r24, 0x3F	; 63
     9ae:	0e 94 be 04 	call	0x97c	; 0x97c <OLED_write_command>
	OLED_write_command(0xd5); //display divide ratio/osc. freq. mode
     9b2:	85 ed       	ldi	r24, 0xD5	; 213
     9b4:	0e 94 be 04 	call	0x97c	; 0x97c <OLED_write_command>
	OLED_write_command(0x80);
     9b8:	80 e8       	ldi	r24, 0x80	; 128
     9ba:	0e 94 be 04 	call	0x97c	; 0x97c <OLED_write_command>
	OLED_write_command(0x81); //contrast control
     9be:	81 e8       	ldi	r24, 0x81	; 129
     9c0:	0e 94 be 04 	call	0x97c	; 0x97c <OLED_write_command>
	OLED_write_command(0x50);
     9c4:	80 e5       	ldi	r24, 0x50	; 80
     9c6:	0e 94 be 04 	call	0x97c	; 0x97c <OLED_write_command>
	OLED_write_command(0xd9); //set pre-charge period
     9ca:	89 ed       	ldi	r24, 0xD9	; 217
     9cc:	0e 94 be 04 	call	0x97c	; 0x97c <OLED_write_command>
	OLED_write_command(0x21);
     9d0:	81 e2       	ldi	r24, 0x21	; 33
     9d2:	0e 94 be 04 	call	0x97c	; 0x97c <OLED_write_command>
	OLED_write_command(0x20); //Set Memory Addressing Mode
     9d6:	80 e2       	ldi	r24, 0x20	; 32
     9d8:	0e 94 be 04 	call	0x97c	; 0x97c <OLED_write_command>
	OLED_write_command(0x02); //THERE WAS WRITTEN 02
     9dc:	82 e0       	ldi	r24, 0x02	; 2
     9de:	0e 94 be 04 	call	0x97c	; 0x97c <OLED_write_command>
	OLED_write_command(0xdb); //VCOM deselect level mode
     9e2:	8b ed       	ldi	r24, 0xDB	; 219
     9e4:	0e 94 be 04 	call	0x97c	; 0x97c <OLED_write_command>
	OLED_write_command(0x30);
     9e8:	80 e3       	ldi	r24, 0x30	; 48
     9ea:	0e 94 be 04 	call	0x97c	; 0x97c <OLED_write_command>
	OLED_write_command(0xad); //master configuration
     9ee:	8d ea       	ldi	r24, 0xAD	; 173
     9f0:	0e 94 be 04 	call	0x97c	; 0x97c <OLED_write_command>
	OLED_write_command(0x00);
     9f4:	80 e0       	ldi	r24, 0x00	; 0
     9f6:	0e 94 be 04 	call	0x97c	; 0x97c <OLED_write_command>
	OLED_write_command(0xa4); //out follows RAM content
     9fa:	84 ea       	ldi	r24, 0xA4	; 164
     9fc:	0e 94 be 04 	call	0x97c	; 0x97c <OLED_write_command>
	OLED_write_command(0xa7); //set awesome display
     a00:	87 ea       	ldi	r24, 0xA7	; 167
     a02:	0e 94 be 04 	call	0x97c	; 0x97c <OLED_write_command>
	OLED_write_command(0xaf); // display on
     a06:	8f ea       	ldi	r24, 0xAF	; 175
     a08:	0e 94 be 04 	call	0x97c	; 0x97c <OLED_write_command>
	   
	OLED_write_command(0xd3);
     a0c:	83 ed       	ldi	r24, 0xD3	; 211
     a0e:	0e 94 be 04 	call	0x97c	; 0x97c <OLED_write_command>
	OLED_write_command(0x02);
     a12:	82 e0       	ldi	r24, 0x02	; 2
     a14:	0e 94 be 04 	call	0x97c	; 0x97c <OLED_write_command>
     a18:	08 95       	ret

00000a1a <OLED_goto_line>:
	
} 


void OLED_goto_line(uint8_t line){
	if(line>=0 && line<8){
     a1a:	88 30       	cpi	r24, 0x08	; 8
     a1c:	18 f4       	brcc	.+6      	; 0xa24 <OLED_goto_line+0xa>
		OLED_write_command(0xb0+line);	
     a1e:	80 55       	subi	r24, 0x50	; 80
     a20:	0e 94 be 04 	call	0x97c	; 0x97c <OLED_write_command>
     a24:	08 95       	ret

00000a26 <OLED_goto_col>:
	}
}

void OLED_goto_col(uint8_t column){
     a26:	cf 93       	push	r28
	if(column>=0 && column<128){	
     a28:	88 23       	and	r24, r24
     a2a:	54 f0       	brlt	.+20     	; 0xa40 <OLED_goto_col+0x1a>
     a2c:	c8 2f       	mov	r28, r24
		OLED_write_command(0x00+(column & 0x0F)); //set the lower column address
     a2e:	8f 70       	andi	r24, 0x0F	; 15
     a30:	0e 94 be 04 	call	0x97c	; 0x97c <OLED_write_command>
		OLED_write_command(0x10+((column & 0xF0) >> 4)); //set the upper column address
     a34:	8c 2f       	mov	r24, r28
     a36:	82 95       	swap	r24
     a38:	8f 70       	andi	r24, 0x0F	; 15
     a3a:	80 5f       	subi	r24, 0xF0	; 240
     a3c:	0e 94 be 04 	call	0x97c	; 0x97c <OLED_write_command>
	}
}
     a40:	cf 91       	pop	r28
     a42:	08 95       	ret

00000a44 <OLED_goto_pos>:


void OLED_goto_pos(uint8_t line, uint8_t column){
     a44:	cf 93       	push	r28
     a46:	c6 2f       	mov	r28, r22
	OLED_goto_line(line);
     a48:	0e 94 0d 05 	call	0xa1a	; 0xa1a <OLED_goto_line>
	OLED_goto_col(column);
     a4c:	8c 2f       	mov	r24, r28
     a4e:	0e 94 13 05 	call	0xa26	; 0xa26 <OLED_goto_col>
}
     a52:	cf 91       	pop	r28
     a54:	08 95       	ret

00000a56 <OLED_clear>:

void OLED_clear(){
     a56:	cf 93       	push	r28
     a58:	df 93       	push	r29
	for(uint8_t i=0;i<N_ROWS;i++){
     a5a:	d0 e0       	ldi	r29, 0x00	; 0
     a5c:	0d c0       	rjmp	.+26     	; 0xa78 <OLED_clear+0x22>
		OLED_goto_pos(i,0);
     a5e:	60 e0       	ldi	r22, 0x00	; 0
     a60:	8d 2f       	mov	r24, r29
     a62:	0e 94 22 05 	call	0xa44	; 0xa44 <OLED_goto_pos>
		for(uint8_t j=0;j<N_COLS;j++){
     a66:	c0 e0       	ldi	r28, 0x00	; 0
     a68:	04 c0       	rjmp	.+8      	; 0xa72 <OLED_clear+0x1c>
			OLED_write_data(0x00);
     a6a:	80 e0       	ldi	r24, 0x00	; 0
     a6c:	0e 94 c1 04 	call	0x982	; 0x982 <OLED_write_data>
}

void OLED_clear(){
	for(uint8_t i=0;i<N_ROWS;i++){
		OLED_goto_pos(i,0);
		for(uint8_t j=0;j<N_COLS;j++){
     a70:	cf 5f       	subi	r28, 0xFF	; 255
     a72:	cc 23       	and	r28, r28
     a74:	d4 f7       	brge	.-12     	; 0xa6a <OLED_clear+0x14>
	OLED_goto_line(line);
	OLED_goto_col(column);
}

void OLED_clear(){
	for(uint8_t i=0;i<N_ROWS;i++){
     a76:	df 5f       	subi	r29, 0xFF	; 255
     a78:	d8 30       	cpi	r29, 0x08	; 8
     a7a:	88 f3       	brcs	.-30     	; 0xa5e <OLED_clear+0x8>
		OLED_goto_pos(i,0);
		for(uint8_t j=0;j<N_COLS;j++){
			OLED_write_data(0x00);
		}		
	}
}
     a7c:	df 91       	pop	r29
     a7e:	cf 91       	pop	r28
     a80:	08 95       	ret

00000a82 <OLED_clear_arrow>:

void OLED_clear_arrow(){
     a82:	cf 93       	push	r28
     a84:	df 93       	push	r29
	for(uint8_t i=2;i<6;i++){
     a86:	d2 e0       	ldi	r29, 0x02	; 2
     a88:	0d c0       	rjmp	.+26     	; 0xaa4 <OLED_clear_arrow+0x22>
		OLED_goto_pos(i,0);
     a8a:	60 e0       	ldi	r22, 0x00	; 0
     a8c:	8d 2f       	mov	r24, r29
     a8e:	0e 94 22 05 	call	0xa44	; 0xa44 <OLED_goto_pos>
		for(uint8_t j=0;j<21;j++){
     a92:	c0 e0       	ldi	r28, 0x00	; 0
     a94:	04 c0       	rjmp	.+8      	; 0xa9e <OLED_clear_arrow+0x1c>
			OLED_write_data(0x00);
     a96:	80 e0       	ldi	r24, 0x00	; 0
     a98:	0e 94 c1 04 	call	0x982	; 0x982 <OLED_write_data>
}

void OLED_clear_arrow(){
	for(uint8_t i=2;i<6;i++){
		OLED_goto_pos(i,0);
		for(uint8_t j=0;j<21;j++){
     a9c:	cf 5f       	subi	r28, 0xFF	; 255
     a9e:	c5 31       	cpi	r28, 0x15	; 21
     aa0:	d0 f3       	brcs	.-12     	; 0xa96 <OLED_clear_arrow+0x14>
		}		
	}
}

void OLED_clear_arrow(){
	for(uint8_t i=2;i<6;i++){
     aa2:	df 5f       	subi	r29, 0xFF	; 255
     aa4:	d6 30       	cpi	r29, 0x06	; 6
     aa6:	88 f3       	brcs	.-30     	; 0xa8a <OLED_clear_arrow+0x8>
		OLED_goto_pos(i,0);
		for(uint8_t j=0;j<21;j++){
			OLED_write_data(0x00);
		}
	}
}
     aa8:	df 91       	pop	r29
     aaa:	cf 91       	pop	r28
     aac:	08 95       	ret

00000aae <OLED_print_arrow>:


void OLED_print_arrow(uint8_t row, uint8_t col){
	
	
	OLED_goto_pos(row,col);
     aae:	0e 94 22 05 	call	0xa44	; 0xa44 <OLED_goto_pos>
	OLED_write_data(0b00011000);
     ab2:	88 e1       	ldi	r24, 0x18	; 24
     ab4:	0e 94 c1 04 	call	0x982	; 0x982 <OLED_write_data>
	OLED_write_data(0b00011000);
     ab8:	88 e1       	ldi	r24, 0x18	; 24
     aba:	0e 94 c1 04 	call	0x982	; 0x982 <OLED_write_data>
	OLED_write_data(0b01111110);
     abe:	8e e7       	ldi	r24, 0x7E	; 126
     ac0:	0e 94 c1 04 	call	0x982	; 0x982 <OLED_write_data>
	OLED_write_data(0b00111100);
     ac4:	8c e3       	ldi	r24, 0x3C	; 60
     ac6:	0e 94 c1 04 	call	0x982	; 0x982 <OLED_write_data>
	OLED_write_data(0b00011000);
     aca:	88 e1       	ldi	r24, 0x18	; 24
     acc:	0e 94 c1 04 	call	0x982	; 0x982 <OLED_write_data>
     ad0:	08 95       	ret

00000ad2 <OLED_print_char>:
	
}

void OLED_print_char(char c){
     ad2:	cf 93       	push	r28
     ad4:	df 93       	push	r29
     ad6:	d8 2f       	mov	r29, r24
	for(uint8_t i=0; i<FONTSIZE; i++){
     ad8:	c0 e0       	ldi	r28, 0x00	; 0
     ada:	11 c0       	rjmp	.+34     	; 0xafe <OLED_print_char+0x2c>
		uint8_t byte = pgm_read_byte(&(font8[c - 32][i]));
     adc:	ed 2f       	mov	r30, r29
     ade:	f0 e0       	ldi	r31, 0x00	; 0
     ae0:	b0 97       	sbiw	r30, 0x20	; 32
     ae2:	ee 0f       	add	r30, r30
     ae4:	ff 1f       	adc	r31, r31
     ae6:	ee 0f       	add	r30, r30
     ae8:	ff 1f       	adc	r31, r31
     aea:	ee 0f       	add	r30, r30
     aec:	ff 1f       	adc	r31, r31
     aee:	ec 0f       	add	r30, r28
     af0:	f1 1d       	adc	r31, r1
     af2:	e0 59       	subi	r30, 0x90	; 144
     af4:	ff 4f       	sbci	r31, 0xFF	; 255
     af6:	84 91       	lpm	r24, Z
		OLED_write_data(byte);
     af8:	0e 94 c1 04 	call	0x982	; 0x982 <OLED_write_data>
	OLED_write_data(0b00011000);
	
}

void OLED_print_char(char c){
	for(uint8_t i=0; i<FONTSIZE; i++){
     afc:	cf 5f       	subi	r28, 0xFF	; 255
     afe:	c8 30       	cpi	r28, 0x08	; 8
     b00:	68 f3       	brcs	.-38     	; 0xadc <OLED_print_char+0xa>
		uint8_t byte = pgm_read_byte(&(font8[c - 32][i]));
		OLED_write_data(byte);
	}
}
     b02:	df 91       	pop	r29
     b04:	cf 91       	pop	r28
     b06:	08 95       	ret

00000b08 <OLED_print_string>:


void OLED_print_string(const char * str){	 
     b08:	0f 93       	push	r16
     b0a:	1f 93       	push	r17
     b0c:	cf 93       	push	r28
     b0e:	8c 01       	movw	r16, r24
	 uint8_t i=0;
     b10:	c0 e0       	ldi	r28, 0x00	; 0
	 while(str[i]!= '\0'){
     b12:	03 c0       	rjmp	.+6      	; 0xb1a <OLED_print_string+0x12>
		 OLED_print_char(str[i]);
     b14:	0e 94 69 05 	call	0xad2	; 0xad2 <OLED_print_char>
		 i++; 
     b18:	cf 5f       	subi	r28, 0xFF	; 255
}


void OLED_print_string(const char * str){	 
	 uint8_t i=0;
	 while(str[i]!= '\0'){
     b1a:	f8 01       	movw	r30, r16
     b1c:	ec 0f       	add	r30, r28
     b1e:	f1 1d       	adc	r31, r1
     b20:	80 81       	ld	r24, Z
     b22:	81 11       	cpse	r24, r1
     b24:	f7 cf       	rjmp	.-18     	; 0xb14 <OLED_print_string+0xc>
		 OLED_print_char(str[i]);
		 i++; 
	 }
     b26:	cf 91       	pop	r28
     b28:	1f 91       	pop	r17
     b2a:	0f 91       	pop	r16
     b2c:	08 95       	ret

00000b2e <f_play>:
		GUI_main_menu();
		playing=0;
	}
}

void f_play(){
     b2e:	1f 93       	push	r17
     b30:	cf 93       	push	r28
     b32:	df 93       	push	r29
     b34:	cd b7       	in	r28, 0x3d	; 61
     b36:	de b7       	in	r29, 0x3e	; 62
     b38:	2b 97       	sbiw	r28, 0x0b	; 11
     b3a:	0f b6       	in	r0, 0x3f	; 63
     b3c:	f8 94       	cli
     b3e:	de bf       	out	0x3e, r29	; 62
     b40:	0f be       	out	0x3f, r0	; 63
     b42:	cd bf       	out	0x3d, r28	; 61
	OLED_clear();
     b44:	0e 94 2b 05 	call	0xa56	; 0xa56 <OLED_clear>
	OLED_goto_pos(3,32);
     b48:	60 e2       	ldi	r22, 0x20	; 32
     b4a:	83 e0       	ldi	r24, 0x03	; 3
     b4c:	0e 94 22 05 	call	0xa44	; 0xa44 <OLED_goto_pos>
	if(!playing){
     b50:	80 91 5c 03 	lds	r24, 0x035C	; 0x80035c <__data_end>
     b54:	81 11       	cpse	r24, r1
     b56:	14 c0       	rjmp	.+40     	; 0xb80 <f_play+0x52>
		CAN_message msg;
		set_msg_id(&msg ,PLAY_CAN_ID);
     b58:	65 e0       	ldi	r22, 0x05	; 5
     b5a:	70 e0       	ldi	r23, 0x00	; 0
     b5c:	ce 01       	movw	r24, r28
     b5e:	01 96       	adiw	r24, 0x01	; 1
     b60:	0e 94 be 02 	call	0x57c	; 0x57c <set_msg_id>
		set_msg_length(&msg, 1);
     b64:	61 e0       	ldi	r22, 0x01	; 1
     b66:	ce 01       	movw	r24, r28
     b68:	01 96       	adiw	r24, 0x01	; 1
     b6a:	0e 94 c2 02 	call	0x584	; 0x584 <set_msg_length>
		msg.data[0] = 1;
     b6e:	11 e0       	ldi	r17, 0x01	; 1
     b70:	1c 83       	std	Y+4, r17	; 0x04
		CAN_transmit(&msg,0);	
     b72:	60 e0       	ldi	r22, 0x00	; 0
     b74:	ce 01       	movw	r24, r28
     b76:	01 96       	adiw	r24, 0x01	; 1
     b78:	0e 94 c5 02 	call	0x58a	; 0x58a <CAN_transmit>
		playing=1;
     b7c:	10 93 5c 03 	sts	0x035C, r17	; 0x80035c <__data_end>
	}

	OLED_print_string("Playing");
     b80:	84 ea       	ldi	r24, 0xA4	; 164
     b82:	92 e0       	ldi	r25, 0x02	; 2
     b84:	0e 94 84 05 	call	0xb08	; 0xb08 <OLED_print_string>
}
     b88:	2b 96       	adiw	r28, 0x0b	; 11
     b8a:	0f b6       	in	r0, 0x3f	; 63
     b8c:	f8 94       	cli
     b8e:	de bf       	out	0x3e, r29	; 62
     b90:	0f be       	out	0x3f, r0	; 63
     b92:	cd bf       	out	0x3d, r28	; 61
     b94:	df 91       	pop	r29
     b96:	cf 91       	pop	r28
     b98:	1f 91       	pop	r17
     b9a:	08 95       	ret

00000b9c <f_sr_highscore>:

void f_sr_highscore(){
     b9c:	0f 93       	push	r16
     b9e:	1f 93       	push	r17
     ba0:	cf 93       	push	r28
     ba2:	df 93       	push	r29
     ba4:	cd b7       	in	r28, 0x3d	; 61
     ba6:	de b7       	in	r29, 0x3e	; 62
     ba8:	64 97       	sbiw	r28, 0x14	; 20
     baa:	0f b6       	in	r0, 0x3f	; 63
     bac:	f8 94       	cli
     bae:	de bf       	out	0x3e, r29	; 62
     bb0:	0f be       	out	0x3f, r0	; 63
     bb2:	cd bf       	out	0x3d, r28	; 61
	OLED_clear();
     bb4:	0e 94 2b 05 	call	0xa56	; 0xa56 <OLED_clear>
	OLED_goto_pos(3,32);
     bb8:	60 e2       	ldi	r22, 0x20	; 32
     bba:	83 e0       	ldi	r24, 0x03	; 3
     bbc:	0e 94 22 05 	call	0xa44	; 0xa44 <OLED_goto_pos>
	char hs[20];
	sprintf(hs,"HS: %d",highscore);
     bc0:	80 91 5d 03 	lds	r24, 0x035D	; 0x80035d <highscore>
     bc4:	1f 92       	push	r1
     bc6:	8f 93       	push	r24
     bc8:	8c ea       	ldi	r24, 0xAC	; 172
     bca:	92 e0       	ldi	r25, 0x02	; 2
     bcc:	9f 93       	push	r25
     bce:	8f 93       	push	r24
     bd0:	8e 01       	movw	r16, r28
     bd2:	0f 5f       	subi	r16, 0xFF	; 255
     bd4:	1f 4f       	sbci	r17, 0xFF	; 255
     bd6:	1f 93       	push	r17
     bd8:	0f 93       	push	r16
     bda:	0e 94 9f 0a 	call	0x153e	; 0x153e <sprintf>
	OLED_print_string(hs);
     bde:	c8 01       	movw	r24, r16
     be0:	0e 94 84 05 	call	0xb08	; 0xb08 <OLED_print_string>
}
     be4:	0f 90       	pop	r0
     be6:	0f 90       	pop	r0
     be8:	0f 90       	pop	r0
     bea:	0f 90       	pop	r0
     bec:	0f 90       	pop	r0
     bee:	0f 90       	pop	r0
     bf0:	64 96       	adiw	r28, 0x14	; 20
     bf2:	0f b6       	in	r0, 0x3f	; 63
     bf4:	f8 94       	cli
     bf6:	de bf       	out	0x3e, r29	; 62
     bf8:	0f be       	out	0x3f, r0	; 63
     bfa:	cd bf       	out	0x3d, r28	; 61
     bfc:	df 91       	pop	r29
     bfe:	cf 91       	pop	r28
     c00:	1f 91       	pop	r17
     c02:	0f 91       	pop	r16
     c04:	08 95       	ret

00000c06 <f_calibrate>:

void f_calibrate(){
	OLED_clear();
     c06:	0e 94 2b 05 	call	0xa56	; 0xa56 <OLED_clear>
	OLED_goto_pos(3,32);
     c0a:	60 e2       	ldi	r22, 0x20	; 32
     c0c:	83 e0       	ldi	r24, 0x03	; 3
     c0e:	0e 94 22 05 	call	0xa44	; 0xa44 <OLED_goto_pos>
	OLED_print_string("calibrate");
     c12:	83 eb       	ldi	r24, 0xB3	; 179
     c14:	92 e0       	ldi	r25, 0x02	; 2
     c16:	0e 94 84 05 	call	0xb08	; 0xb08 <OLED_print_string>
     c1a:	08 95       	ret

00000c1c <f_set_diff>:
}

void f_set_diff(){
	OLED_clear();
     c1c:	0e 94 2b 05 	call	0xa56	; 0xa56 <OLED_clear>
	OLED_goto_pos(3,32);
     c20:	60 e2       	ldi	r22, 0x20	; 32
     c22:	83 e0       	ldi	r24, 0x03	; 3
     c24:	0e 94 22 05 	call	0xa44	; 0xa44 <OLED_goto_pos>
	OLED_print_string("set diff");
     c28:	8d eb       	ldi	r24, 0xBD	; 189
     c2a:	92 e0       	ldi	r25, 0x02	; 2
     c2c:	0e 94 84 05 	call	0xb08	; 0xb08 <OLED_print_string>
     c30:	08 95       	ret

00000c32 <f_quit>:
}

void f_quit(){
	OLED_clear();
     c32:	0e 94 2b 05 	call	0xa56	; 0xa56 <OLED_clear>
	OLED_goto_pos(3,32);
     c36:	60 e2       	ldi	r22, 0x20	; 32
     c38:	83 e0       	ldi	r24, 0x03	; 3
     c3a:	0e 94 22 05 	call	0xa44	; 0xa44 <OLED_goto_pos>
	OLED_print_string("bye bye");
     c3e:	86 ec       	ldi	r24, 0xC6	; 198
     c40:	92 e0       	ldi	r25, 0x02	; 2
     c42:	0e 94 84 05 	call	0xb08	; 0xb08 <OLED_print_string>
     c46:	08 95       	ret

00000c48 <new_node>:
	struct node* child [5];
	void (*fun_ptr)();
	uint8_t index;
	} node;

node* new_node(char* name, node* parent) {
     c48:	0f 93       	push	r16
     c4a:	1f 93       	push	r17
     c4c:	cf 93       	push	r28
     c4e:	df 93       	push	r29
     c50:	8c 01       	movw	r16, r24
     c52:	eb 01       	movw	r28, r22
	node* n = malloc(sizeof(node));
     c54:	81 e1       	ldi	r24, 0x11	; 17
     c56:	90 e0       	ldi	r25, 0x00	; 0
     c58:	0e 94 ed 08 	call	0x11da	; 0x11da <malloc>
	n->title = name;
     c5c:	fc 01       	movw	r30, r24
     c5e:	11 83       	std	Z+1, r17	; 0x01
     c60:	00 83       	st	Z, r16
	n->parent = parent;
     c62:	d3 83       	std	Z+3, r29	; 0x03
     c64:	c2 83       	std	Z+2, r28	; 0x02
	for(int i=0; i<5; i++){
     c66:	20 e0       	ldi	r18, 0x00	; 0
     c68:	30 e0       	ldi	r19, 0x00	; 0
     c6a:	0a c0       	rjmp	.+20     	; 0xc80 <new_node+0x38>
		(n->child)[i] = NULL;
     c6c:	f9 01       	movw	r30, r18
     c6e:	32 96       	adiw	r30, 0x02	; 2
     c70:	ee 0f       	add	r30, r30
     c72:	ff 1f       	adc	r31, r31
     c74:	e8 0f       	add	r30, r24
     c76:	f9 1f       	adc	r31, r25
     c78:	11 82       	std	Z+1, r1	; 0x01
     c7a:	10 82       	st	Z, r1

node* new_node(char* name, node* parent) {
	node* n = malloc(sizeof(node));
	n->title = name;
	n->parent = parent;
	for(int i=0; i<5; i++){
     c7c:	2f 5f       	subi	r18, 0xFF	; 255
     c7e:	3f 4f       	sbci	r19, 0xFF	; 255
     c80:	25 30       	cpi	r18, 0x05	; 5
     c82:	31 05       	cpc	r19, r1
     c84:	9c f3       	brlt	.-26     	; 0xc6c <new_node+0x24>
		(n->child)[i] = NULL;
	}
	n->index = NULL;
     c86:	fc 01       	movw	r30, r24
     c88:	10 8a       	std	Z+16, r1	; 0x10
	return n;
}
     c8a:	df 91       	pop	r29
     c8c:	cf 91       	pop	r28
     c8e:	1f 91       	pop	r17
     c90:	0f 91       	pop	r16
     c92:	08 95       	ret

00000c94 <display_highscore>:



void display_highscore(uint8_t hs){	
	
	if(hs>highscore){
     c94:	90 91 5d 03 	lds	r25, 0x035D	; 0x80035d <highscore>
     c98:	98 17       	cp	r25, r24
     c9a:	10 f4       	brcc	.+4      	; 0xca0 <display_highscore+0xc>
		highscore=hs;
     c9c:	80 93 5d 03 	sts	0x035D, r24	; 0x80035d <highscore>
     ca0:	08 95       	ret

00000ca2 <set_current_node>:
	}
		
}

void set_current_node(node*n){
	curr_mode=n;
     ca2:	90 93 6f 03 	sts	0x036F, r25	; 0x80036f <curr_mode+0x1>
     ca6:	80 93 6e 03 	sts	0x036E, r24	; 0x80036e <curr_mode>
     caa:	08 95       	ret

00000cac <get_current_node>:
}

node* get_current_node(void){
	return curr_mode;
}
     cac:	80 91 6e 03 	lds	r24, 0x036E	; 0x80036e <curr_mode>
     cb0:	90 91 6f 03 	lds	r25, 0x036F	; 0x80036f <curr_mode+0x1>
     cb4:	08 95       	ret

00000cb6 <set_child>:



void set_child(node* parent, node* child, uint8_t i){
	parent->child[i] = child;
     cb6:	24 2f       	mov	r18, r20
     cb8:	30 e0       	ldi	r19, 0x00	; 0
     cba:	2e 5f       	subi	r18, 0xFE	; 254
     cbc:	3f 4f       	sbci	r19, 0xFF	; 255
     cbe:	22 0f       	add	r18, r18
     cc0:	33 1f       	adc	r19, r19
     cc2:	82 0f       	add	r24, r18
     cc4:	93 1f       	adc	r25, r19
     cc6:	fc 01       	movw	r30, r24
     cc8:	71 83       	std	Z+1, r23	; 0x01
     cca:	60 83       	st	Z, r22
	child->index = i;
     ccc:	fb 01       	movw	r30, r22
     cce:	40 8b       	std	Z+16, r20	; 0x10
     cd0:	08 95       	ret

00000cd2 <set_fun>:
}

void set_fun(node* n, void (* fun_ptr)(void)){
	n->fun_ptr= fun_ptr;
     cd2:	fc 01       	movw	r30, r24
     cd4:	77 87       	std	Z+15, r23	; 0x0f
     cd6:	66 87       	std	Z+14, r22	; 0x0e
     cd8:	08 95       	ret

00000cda <move_arrow>:
	OLED_goto_pos(3,32);
	OLED_print_string("bye bye");
}

void move_arrow(uint8_t dir){
	if (dir==0 ){
     cda:	81 11       	cpse	r24, r1
     cdc:	07 c0       	rjmp	.+14     	; 0xcec <move_arrow+0x12>
	  OLED_clear_arrow();  
     cde:	0e 94 41 05 	call	0xa82	; 0xa82 <OLED_clear_arrow>
	  OLED_print_arrow(5,15);
     ce2:	6f e0       	ldi	r22, 0x0F	; 15
     ce4:	85 e0       	ldi	r24, 0x05	; 5
     ce6:	0e 94 57 05 	call	0xaae	; 0xaae <OLED_print_arrow>
     cea:	08 95       	ret
	  } 
	else if (dir == 1){
     cec:	81 30       	cpi	r24, 0x01	; 1
     cee:	31 f4       	brne	.+12     	; 0xcfc <move_arrow+0x22>
	OLED_clear_arrow();
     cf0:	0e 94 41 05 	call	0xa82	; 0xa82 <OLED_clear_arrow>
	OLED_print_arrow(3,15);
     cf4:	6f e0       	ldi	r22, 0x0F	; 15
     cf6:	83 e0       	ldi	r24, 0x03	; 3
     cf8:	0e 94 57 05 	call	0xaae	; 0xaae <OLED_print_arrow>
     cfc:	08 95       	ret

00000cfe <GUI_main_menu>:
	OLED_goto_pos(5,32);
	OLED_print_string("See/reset hs");		
	
}

void GUI_main_menu(uint8_t page,uint8_t back){
     cfe:	0f 93       	push	r16
     d00:	1f 93       	push	r17
     d02:	cf 93       	push	r28
     d04:	df 93       	push	r29
     d06:	cd b7       	in	r28, 0x3d	; 61
     d08:	de b7       	in	r29, 0x3e	; 62
     d0a:	2b 97       	sbiw	r28, 0x0b	; 11
     d0c:	0f b6       	in	r0, 0x3f	; 63
     d0e:	f8 94       	cli
     d10:	de bf       	out	0x3e, r29	; 62
     d12:	0f be       	out	0x3f, r0	; 63
     d14:	cd bf       	out	0x3d, r28	; 61
     d16:	08 2f       	mov	r16, r24
     d18:	16 2f       	mov	r17, r22
	set_current_node(main_menu);
     d1a:	80 91 7c 03 	lds	r24, 0x037C	; 0x80037c <main_menu>
     d1e:	90 91 7d 03 	lds	r25, 0x037D	; 0x80037d <main_menu+0x1>
     d22:	0e 94 51 06 	call	0xca2	; 0xca2 <set_current_node>
	OLED_clear();
     d26:	0e 94 2b 05 	call	0xa56	; 0xa56 <OLED_clear>
	OLED_goto_pos(1,8);
     d2a:	68 e0       	ldi	r22, 0x08	; 8
     d2c:	81 e0       	ldi	r24, 0x01	; 1
     d2e:	0e 94 22 05 	call	0xa44	; 0xa44 <OLED_goto_pos>
	OLED_print_string("PING PONG GAME");
     d32:	8e ec       	ldi	r24, 0xCE	; 206
     d34:	92 e0       	ldi	r25, 0x02	; 2
     d36:	0e 94 84 05 	call	0xb08	; 0xb08 <OLED_print_string>
	uint8_t dir;
	
	CAN_message msg;
	set_msg_id(&msg ,STOP_PLAY_CAN_ID);
     d3a:	66 e0       	ldi	r22, 0x06	; 6
     d3c:	70 e0       	ldi	r23, 0x00	; 0
     d3e:	ce 01       	movw	r24, r28
     d40:	01 96       	adiw	r24, 0x01	; 1
     d42:	0e 94 be 02 	call	0x57c	; 0x57c <set_msg_id>
	set_msg_length(&msg, 1);
     d46:	61 e0       	ldi	r22, 0x01	; 1
     d48:	ce 01       	movw	r24, r28
     d4a:	01 96       	adiw	r24, 0x01	; 1
     d4c:	0e 94 c2 02 	call	0x584	; 0x584 <set_msg_length>
	msg.data[0] = 1;
     d50:	81 e0       	ldi	r24, 0x01	; 1
     d52:	8c 83       	std	Y+4, r24	; 0x04
	CAN_transmit(&msg,0);	
     d54:	60 e0       	ldi	r22, 0x00	; 0
     d56:	ce 01       	movw	r24, r28
     d58:	01 96       	adiw	r24, 0x01	; 1
     d5a:	0e 94 c5 02 	call	0x58a	; 0x58a <CAN_transmit>
	
	if (back==0)
     d5e:	11 11       	cpse	r17, r1
     d60:	04 c0       	rjmp	.+8      	; 0xd6a <GUI_main_menu+0x6c>
	dir=curr_arrow_pos%2; 
     d62:	10 91 5e 03 	lds	r17, 0x035E	; 0x80035e <curr_arrow_pos>
     d66:	11 70       	andi	r17, 0x01	; 1
     d68:	05 c0       	rjmp	.+10     	; 0xd74 <GUI_main_menu+0x76>
	else 
	dir=!(curr_arrow_pos%2); 
     d6a:	10 91 5e 03 	lds	r17, 0x035E	; 0x80035e <curr_arrow_pos>
     d6e:	81 e0       	ldi	r24, 0x01	; 1
     d70:	18 27       	eor	r17, r24
     d72:	11 70       	andi	r17, 0x01	; 1
	

	if(page ==2){
     d74:	02 30       	cpi	r16, 0x02	; 2
     d76:	61 f4       	brne	.+24     	; 0xd90 <GUI_main_menu+0x92>
		OLED_goto_pos(3,32);
     d78:	60 e2       	ldi	r22, 0x20	; 32
     d7a:	83 e0       	ldi	r24, 0x03	; 3
     d7c:	0e 94 22 05 	call	0xa44	; 0xa44 <OLED_goto_pos>
		OLED_print_string("Quit");
     d80:	8d ed       	ldi	r24, 0xDD	; 221
     d82:	92 e0       	ldi	r25, 0x02	; 2
     d84:	0e 94 84 05 	call	0xb08	; 0xb08 <OLED_print_string>
		move_arrow(dir);
     d88:	81 2f       	mov	r24, r17
     d8a:	0e 94 6d 06 	call	0xcda	; 0xcda <move_arrow>
     d8e:	29 c0       	rjmp	.+82     	; 0xde2 <GUI_main_menu+0xe4>
		
	}
	else if(page == 1){
     d90:	01 30       	cpi	r16, 0x01	; 1
     d92:	a1 f4       	brne	.+40     	; 0xdbc <GUI_main_menu+0xbe>
		OLED_goto_pos(3,32);
     d94:	60 e2       	ldi	r22, 0x20	; 32
     d96:	83 e0       	ldi	r24, 0x03	; 3
     d98:	0e 94 22 05 	call	0xa44	; 0xa44 <OLED_goto_pos>
		OLED_print_string("Calibrate");
     d9c:	82 ee       	ldi	r24, 0xE2	; 226
     d9e:	92 e0       	ldi	r25, 0x02	; 2
     da0:	0e 94 84 05 	call	0xb08	; 0xb08 <OLED_print_string>
		OLED_goto_pos(5,32);
     da4:	60 e2       	ldi	r22, 0x20	; 32
     da6:	85 e0       	ldi	r24, 0x05	; 5
     da8:	0e 94 22 05 	call	0xa44	; 0xa44 <OLED_goto_pos>
		OLED_print_string("Set difficulty");
     dac:	8c ee       	ldi	r24, 0xEC	; 236
     dae:	92 e0       	ldi	r25, 0x02	; 2
     db0:	0e 94 84 05 	call	0xb08	; 0xb08 <OLED_print_string>
		move_arrow(dir);
     db4:	81 2f       	mov	r24, r17
     db6:	0e 94 6d 06 	call	0xcda	; 0xcda <move_arrow>
     dba:	13 c0       	rjmp	.+38     	; 0xde2 <GUI_main_menu+0xe4>
	}
	else {
		OLED_goto_pos(3,32);
     dbc:	60 e2       	ldi	r22, 0x20	; 32
     dbe:	83 e0       	ldi	r24, 0x03	; 3
     dc0:	0e 94 22 05 	call	0xa44	; 0xa44 <OLED_goto_pos>
		OLED_print_string("Play");
     dc4:	8b ef       	ldi	r24, 0xFB	; 251
     dc6:	92 e0       	ldi	r25, 0x02	; 2
     dc8:	0e 94 84 05 	call	0xb08	; 0xb08 <OLED_print_string>
		OLED_goto_pos(5,32);
     dcc:	60 e2       	ldi	r22, 0x20	; 32
     dce:	85 e0       	ldi	r24, 0x05	; 5
     dd0:	0e 94 22 05 	call	0xa44	; 0xa44 <OLED_goto_pos>
		OLED_print_string("See/reset hs");		
     dd4:	80 e0       	ldi	r24, 0x00	; 0
     dd6:	93 e0       	ldi	r25, 0x03	; 3
     dd8:	0e 94 84 05 	call	0xb08	; 0xb08 <OLED_print_string>
		move_arrow(dir);
     ddc:	81 2f       	mov	r24, r17
     dde:	0e 94 6d 06 	call	0xcda	; 0xcda <move_arrow>
	}
}
     de2:	2b 96       	adiw	r28, 0x0b	; 11
     de4:	0f b6       	in	r0, 0x3f	; 63
     de6:	f8 94       	cli
     de8:	de bf       	out	0x3e, r29	; 62
     dea:	0f be       	out	0x3f, r0	; 63
     dec:	cd bf       	out	0x3d, r28	; 61
     dee:	df 91       	pop	r29
     df0:	cf 91       	pop	r28
     df2:	1f 91       	pop	r17
     df4:	0f 91       	pop	r16
     df6:	08 95       	ret

00000df8 <check_game>:
	n->fun_ptr= fun_ptr;
}


void check_game(CAN_message * score_message)
{
     df8:	cf 93       	push	r28
     dfa:	df 93       	push	r29
	if (score_message->id==SCORE_CAN_ID){
     dfc:	fc 01       	movw	r30, r24
     dfe:	20 81       	ld	r18, Z
     e00:	31 81       	ldd	r19, Z+1	; 0x01
     e02:	22 30       	cpi	r18, 0x02	; 2
     e04:	31 05       	cpc	r19, r1
     e06:	01 f5       	brne	.+64     	; 0xe48 <check_game+0x50>
     e08:	ec 01       	movw	r28, r24
		display_highscore(score_message->data[0]);
     e0a:	83 81       	ldd	r24, Z+3	; 0x03
     e0c:	0e 94 4a 06 	call	0xc94	; 0xc94 <display_highscore>
		printf("highscore received: %d\n\r",score_message->data[0]);
     e10:	8b 81       	ldd	r24, Y+3	; 0x03
     e12:	1f 92       	push	r1
     e14:	8f 93       	push	r24
     e16:	8d e0       	ldi	r24, 0x0D	; 13
     e18:	93 e0       	ldi	r25, 0x03	; 3
     e1a:	9f 93       	push	r25
     e1c:	8f 93       	push	r24
     e1e:	0e 94 59 0a 	call	0x14b2	; 0x14b2 <printf>
		score_message->id=99;
     e22:	83 e6       	ldi	r24, 0x63	; 99
     e24:	90 e0       	ldi	r25, 0x00	; 0
     e26:	99 83       	std	Y+1, r25	; 0x01
     e28:	88 83       	st	Y, r24
		set_current_node(get_current_node()->parent);
     e2a:	0e 94 56 06 	call	0xcac	; 0xcac <get_current_node>
     e2e:	fc 01       	movw	r30, r24
     e30:	82 81       	ldd	r24, Z+2	; 0x02
     e32:	93 81       	ldd	r25, Z+3	; 0x03
     e34:	0e 94 51 06 	call	0xca2	; 0xca2 <set_current_node>
		GUI_main_menu();
     e38:	0e 94 7f 06 	call	0xcfe	; 0xcfe <GUI_main_menu>
		playing=0;
     e3c:	10 92 5c 03 	sts	0x035C, r1	; 0x80035c <__data_end>
     e40:	0f 90       	pop	r0
     e42:	0f 90       	pop	r0
     e44:	0f 90       	pop	r0
     e46:	0f 90       	pop	r0
	}
}
     e48:	df 91       	pop	r29
     e4a:	cf 91       	pop	r28
     e4c:	08 95       	ret

00000e4e <GUI_init>:
	
}


void GUI_init(){
	OLED_clear();
     e4e:	0e 94 2b 05 	call	0xa56	; 0xa56 <OLED_clear>
	OLED_goto_pos(1,8);
     e52:	68 e0       	ldi	r22, 0x08	; 8
     e54:	81 e0       	ldi	r24, 0x01	; 1
     e56:	0e 94 22 05 	call	0xa44	; 0xa44 <OLED_goto_pos>
	OLED_print_string("PING PONG GAME");
     e5a:	8e ec       	ldi	r24, 0xCE	; 206
     e5c:	92 e0       	ldi	r25, 0x02	; 2
     e5e:	0e 94 84 05 	call	0xb08	; 0xb08 <OLED_print_string>
	OLED_goto_pos(3,32);
     e62:	60 e2       	ldi	r22, 0x20	; 32
     e64:	83 e0       	ldi	r24, 0x03	; 3
     e66:	0e 94 22 05 	call	0xa44	; 0xa44 <OLED_goto_pos>
	OLED_print_string("Play");
     e6a:	8b ef       	ldi	r24, 0xFB	; 251
     e6c:	92 e0       	ldi	r25, 0x02	; 2
     e6e:	0e 94 84 05 	call	0xb08	; 0xb08 <OLED_print_string>
	OLED_goto_pos(5,32);
     e72:	60 e2       	ldi	r22, 0x20	; 32
     e74:	85 e0       	ldi	r24, 0x05	; 5
     e76:	0e 94 22 05 	call	0xa44	; 0xa44 <OLED_goto_pos>
	OLED_print_string("See/reset hs");		
     e7a:	80 e0       	ldi	r24, 0x00	; 0
     e7c:	93 e0       	ldi	r25, 0x03	; 3
     e7e:	0e 94 84 05 	call	0xb08	; 0xb08 <OLED_print_string>
     e82:	08 95       	ret

00000e84 <GUI_menu_init>:
	}
}

void GUI_menu_init(){
	
	main_menu= new_node("Main Menu", NULL);
     e84:	60 e0       	ldi	r22, 0x00	; 0
     e86:	70 e0       	ldi	r23, 0x00	; 0
     e88:	86 e2       	ldi	r24, 0x26	; 38
     e8a:	93 e0       	ldi	r25, 0x03	; 3
     e8c:	0e 94 24 06 	call	0xc48	; 0xc48 <new_node>
     e90:	90 93 7d 03 	sts	0x037D, r25	; 0x80037d <main_menu+0x1>
     e94:	80 93 7c 03 	sts	0x037C, r24	; 0x80037c <main_menu>
	curr_mode= main_menu;
     e98:	90 93 6f 03 	sts	0x036F, r25	; 0x80036f <curr_mode+0x1>
     e9c:	80 93 6e 03 	sts	0x036E, r24	; 0x80036e <curr_mode>
	play= new_node("Play", main_menu);
     ea0:	bc 01       	movw	r22, r24
     ea2:	8b ef       	ldi	r24, 0xFB	; 251
     ea4:	92 e0       	ldi	r25, 0x02	; 2
     ea6:	0e 94 24 06 	call	0xc48	; 0xc48 <new_node>
     eaa:	90 93 73 03 	sts	0x0373, r25	; 0x800373 <play+0x1>
     eae:	80 93 72 03 	sts	0x0372, r24	; 0x800372 <play>
	sr_highscore= new_node("See Highscore", main_menu);
     eb2:	60 91 7c 03 	lds	r22, 0x037C	; 0x80037c <main_menu>
     eb6:	70 91 7d 03 	lds	r23, 0x037D	; 0x80037d <main_menu+0x1>
     eba:	80 e3       	ldi	r24, 0x30	; 48
     ebc:	93 e0       	ldi	r25, 0x03	; 3
     ebe:	0e 94 24 06 	call	0xc48	; 0xc48 <new_node>
     ec2:	90 93 71 03 	sts	0x0371, r25	; 0x800371 <sr_highscore+0x1>
     ec6:	80 93 70 03 	sts	0x0370, r24	; 0x800370 <sr_highscore>
	calibrate= new_node("Calibrate", main_menu);
     eca:	60 91 7c 03 	lds	r22, 0x037C	; 0x80037c <main_menu>
     ece:	70 91 7d 03 	lds	r23, 0x037D	; 0x80037d <main_menu+0x1>
     ed2:	82 ee       	ldi	r24, 0xE2	; 226
     ed4:	92 e0       	ldi	r25, 0x02	; 2
     ed6:	0e 94 24 06 	call	0xc48	; 0xc48 <new_node>
     eda:	90 93 7b 03 	sts	0x037B, r25	; 0x80037b <calibrate+0x1>
     ede:	80 93 7a 03 	sts	0x037A, r24	; 0x80037a <calibrate>
	set_diff= new_node("Set Difficulty", main_menu);
     ee2:	60 91 7c 03 	lds	r22, 0x037C	; 0x80037c <main_menu>
     ee6:	70 91 7d 03 	lds	r23, 0x037D	; 0x80037d <main_menu+0x1>
     eea:	8e e3       	ldi	r24, 0x3E	; 62
     eec:	93 e0       	ldi	r25, 0x03	; 3
     eee:	0e 94 24 06 	call	0xc48	; 0xc48 <new_node>
     ef2:	90 93 7f 03 	sts	0x037F, r25	; 0x80037f <set_diff+0x1>
     ef6:	80 93 7e 03 	sts	0x037E, r24	; 0x80037e <set_diff>
	quit= new_node("Quit", main_menu);
     efa:	60 91 7c 03 	lds	r22, 0x037C	; 0x80037c <main_menu>
     efe:	70 91 7d 03 	lds	r23, 0x037D	; 0x80037d <main_menu+0x1>
     f02:	8d ed       	ldi	r24, 0xDD	; 221
     f04:	92 e0       	ldi	r25, 0x02	; 2
     f06:	0e 94 24 06 	call	0xc48	; 0xc48 <new_node>
     f0a:	90 93 6d 03 	sts	0x036D, r25	; 0x80036d <quit+0x1>
     f0e:	80 93 6c 03 	sts	0x036C, r24	; 0x80036c <quit>
	
	set_child(main_menu, play, 0);
     f12:	60 91 72 03 	lds	r22, 0x0372	; 0x800372 <play>
     f16:	70 91 73 03 	lds	r23, 0x0373	; 0x800373 <play+0x1>
     f1a:	40 e0       	ldi	r20, 0x00	; 0
     f1c:	80 91 7c 03 	lds	r24, 0x037C	; 0x80037c <main_menu>
     f20:	90 91 7d 03 	lds	r25, 0x037D	; 0x80037d <main_menu+0x1>
     f24:	0e 94 5b 06 	call	0xcb6	; 0xcb6 <set_child>
	set_child(main_menu, sr_highscore, 1);
     f28:	60 91 70 03 	lds	r22, 0x0370	; 0x800370 <sr_highscore>
     f2c:	70 91 71 03 	lds	r23, 0x0371	; 0x800371 <sr_highscore+0x1>
     f30:	41 e0       	ldi	r20, 0x01	; 1
     f32:	80 91 7c 03 	lds	r24, 0x037C	; 0x80037c <main_menu>
     f36:	90 91 7d 03 	lds	r25, 0x037D	; 0x80037d <main_menu+0x1>
     f3a:	0e 94 5b 06 	call	0xcb6	; 0xcb6 <set_child>
	set_child(main_menu, calibrate, 2);
     f3e:	60 91 7a 03 	lds	r22, 0x037A	; 0x80037a <calibrate>
     f42:	70 91 7b 03 	lds	r23, 0x037B	; 0x80037b <calibrate+0x1>
     f46:	42 e0       	ldi	r20, 0x02	; 2
     f48:	80 91 7c 03 	lds	r24, 0x037C	; 0x80037c <main_menu>
     f4c:	90 91 7d 03 	lds	r25, 0x037D	; 0x80037d <main_menu+0x1>
     f50:	0e 94 5b 06 	call	0xcb6	; 0xcb6 <set_child>
	set_child(main_menu, set_diff, 3);	
     f54:	60 91 7e 03 	lds	r22, 0x037E	; 0x80037e <set_diff>
     f58:	70 91 7f 03 	lds	r23, 0x037F	; 0x80037f <set_diff+0x1>
     f5c:	43 e0       	ldi	r20, 0x03	; 3
     f5e:	80 91 7c 03 	lds	r24, 0x037C	; 0x80037c <main_menu>
     f62:	90 91 7d 03 	lds	r25, 0x037D	; 0x80037d <main_menu+0x1>
     f66:	0e 94 5b 06 	call	0xcb6	; 0xcb6 <set_child>
	set_child(main_menu, quit, 4);	
     f6a:	60 91 6c 03 	lds	r22, 0x036C	; 0x80036c <quit>
     f6e:	70 91 6d 03 	lds	r23, 0x036D	; 0x80036d <quit+0x1>
     f72:	44 e0       	ldi	r20, 0x04	; 4
     f74:	80 91 7c 03 	lds	r24, 0x037C	; 0x80037c <main_menu>
     f78:	90 91 7d 03 	lds	r25, 0x037D	; 0x80037d <main_menu+0x1>
     f7c:	0e 94 5b 06 	call	0xcb6	; 0xcb6 <set_child>
	
	set_fun(main_menu,GUI_main_menu);
     f80:	6f e7       	ldi	r22, 0x7F	; 127
     f82:	76 e0       	ldi	r23, 0x06	; 6
     f84:	80 91 7c 03 	lds	r24, 0x037C	; 0x80037c <main_menu>
     f88:	90 91 7d 03 	lds	r25, 0x037D	; 0x80037d <main_menu+0x1>
     f8c:	0e 94 69 06 	call	0xcd2	; 0xcd2 <set_fun>
	set_fun(play,f_play);
     f90:	67 e9       	ldi	r22, 0x97	; 151
     f92:	75 e0       	ldi	r23, 0x05	; 5
     f94:	80 91 72 03 	lds	r24, 0x0372	; 0x800372 <play>
     f98:	90 91 73 03 	lds	r25, 0x0373	; 0x800373 <play+0x1>
     f9c:	0e 94 69 06 	call	0xcd2	; 0xcd2 <set_fun>
	set_fun(sr_highscore,f_sr_highscore);
     fa0:	6e ec       	ldi	r22, 0xCE	; 206
     fa2:	75 e0       	ldi	r23, 0x05	; 5
     fa4:	80 91 70 03 	lds	r24, 0x0370	; 0x800370 <sr_highscore>
     fa8:	90 91 71 03 	lds	r25, 0x0371	; 0x800371 <sr_highscore+0x1>
     fac:	0e 94 69 06 	call	0xcd2	; 0xcd2 <set_fun>
	set_fun(calibrate,f_calibrate);
     fb0:	63 e0       	ldi	r22, 0x03	; 3
     fb2:	76 e0       	ldi	r23, 0x06	; 6
     fb4:	80 91 7a 03 	lds	r24, 0x037A	; 0x80037a <calibrate>
     fb8:	90 91 7b 03 	lds	r25, 0x037B	; 0x80037b <calibrate+0x1>
     fbc:	0e 94 69 06 	call	0xcd2	; 0xcd2 <set_fun>
	set_fun(set_diff,f_set_diff);
     fc0:	6e e0       	ldi	r22, 0x0E	; 14
     fc2:	76 e0       	ldi	r23, 0x06	; 6
     fc4:	80 91 7e 03 	lds	r24, 0x037E	; 0x80037e <set_diff>
     fc8:	90 91 7f 03 	lds	r25, 0x037F	; 0x80037f <set_diff+0x1>
     fcc:	0e 94 69 06 	call	0xcd2	; 0xcd2 <set_fun>
	set_fun(quit,f_quit);
     fd0:	69 e1       	ldi	r22, 0x19	; 25
     fd2:	76 e0       	ldi	r23, 0x06	; 6
     fd4:	80 91 6c 03 	lds	r24, 0x036C	; 0x80036c <quit>
     fd8:	90 91 6d 03 	lds	r25, 0x036D	; 0x80036d <quit+0x1>
     fdc:	0e 94 69 06 	call	0xcd2	; 0xcd2 <set_fun>
	GUI_init();
     fe0:	0e 94 27 07 	call	0xe4e	; 0xe4e <GUI_init>
	OLED_print_arrow(3,15);
     fe4:	6f e0       	ldi	r22, 0x0F	; 15
     fe6:	83 e0       	ldi	r24, 0x03	; 3
     fe8:	0e 94 57 05 	call	0xaae	; 0xaae <OLED_print_arrow>
     fec:	08 95       	ret

00000fee <menu_navigation>:
	title_1 = prova->title;
	node * prova_parent = quit->parent;
	title_1_p = prova_parent->title;
	 printf("node : %s, parent node: %s \n", title_1, title_1_p);*/
	
	joystick = get_joypos();
     fee:	0e 94 72 03 	call	0x6e4	; 0x6e4 <get_joypos>
     ff2:	20 93 74 03 	sts	0x0374, r18	; 0x800374 <joystick>
     ff6:	30 93 75 03 	sts	0x0375, r19	; 0x800375 <joystick+0x1>
     ffa:	40 93 76 03 	sts	0x0376, r20	; 0x800376 <joystick+0x2>
     ffe:	50 93 77 03 	sts	0x0377, r21	; 0x800377 <joystick+0x3>
    1002:	60 93 78 03 	sts	0x0378, r22	; 0x800378 <joystick+0x4>
    1006:	70 93 79 03 	sts	0x0379, r23	; 0x800379 <joystick+0x5>
	//printf("dir : %s\n",joystick.x_currdir);
	if (curr_mode->title == "Main Menu"){
    100a:	e0 91 6e 03 	lds	r30, 0x036E	; 0x80036e <curr_mode>
    100e:	f0 91 6f 03 	lds	r31, 0x036F	; 0x80036f <curr_mode+0x1>
    1012:	80 81       	ld	r24, Z
    1014:	91 81       	ldd	r25, Z+1	; 0x01
    1016:	86 52       	subi	r24, 0x26	; 38
    1018:	93 40       	sbci	r25, 0x03	; 3
    101a:	09 f0       	breq	.+2      	; 0x101e <menu_navigation+0x30>
    101c:	54 c0       	rjmp	.+168    	; 0x10c6 <menu_navigation+0xd8>
		if(joystick.y_currdir == "DOWN" && curr_arrow_pos<END_MAIN_MENU){	
    101e:	20 91 78 03 	lds	r18, 0x0378	; 0x800378 <joystick+0x4>
    1022:	30 91 79 03 	lds	r19, 0x0379	; 0x800379 <joystick+0x5>
    1026:	82 e0       	ldi	r24, 0x02	; 2
    1028:	2c 39       	cpi	r18, 0x9C	; 156
    102a:	38 07       	cpc	r19, r24
    102c:	a9 f4       	brne	.+42     	; 0x1058 <menu_navigation+0x6a>
    102e:	80 91 5e 03 	lds	r24, 0x035E	; 0x80035e <curr_arrow_pos>
    1032:	84 30       	cpi	r24, 0x04	; 4
    1034:	88 f4       	brcc	.+34     	; 0x1058 <menu_navigation+0x6a>
			
			if (curr_arrow_pos%2 ==0 ){		
    1036:	80 fd       	sbrc	r24, 0
    1038:	04 c0       	rjmp	.+8      	; 0x1042 <menu_navigation+0x54>
				move_arrow(0);
    103a:	80 e0       	ldi	r24, 0x00	; 0
    103c:	0e 94 6d 06 	call	0xcda	; 0xcda <move_arrow>
    1040:	05 c0       	rjmp	.+10     	; 0x104c <menu_navigation+0x5e>
			}
			else GUI_main_menu(((int)(curr_arrow_pos/2))+1,0);
    1042:	86 95       	lsr	r24
    1044:	60 e0       	ldi	r22, 0x00	; 0
    1046:	8f 5f       	subi	r24, 0xFF	; 255
    1048:	0e 94 7f 06 	call	0xcfe	; 0xcfe <GUI_main_menu>
			
			curr_arrow_pos=curr_arrow_pos+1;			
    104c:	80 91 5e 03 	lds	r24, 0x035E	; 0x80035e <curr_arrow_pos>
    1050:	8f 5f       	subi	r24, 0xFF	; 255
    1052:	80 93 5e 03 	sts	0x035E, r24	; 0x80035e <curr_arrow_pos>
    1056:	17 c0       	rjmp	.+46     	; 0x1086 <menu_navigation+0x98>
			}
		else if(joystick.y_currdir == "UP" && curr_arrow_pos>0){
    1058:	21 5a       	subi	r18, 0xA1	; 161
    105a:	32 40       	sbci	r19, 0x02	; 2
    105c:	a1 f4       	brne	.+40     	; 0x1086 <menu_navigation+0x98>
    105e:	80 91 5e 03 	lds	r24, 0x035E	; 0x80035e <curr_arrow_pos>
    1062:	88 23       	and	r24, r24
    1064:	81 f0       	breq	.+32     	; 0x1086 <menu_navigation+0x98>
				
			if (curr_arrow_pos%2 ==1 ){		
    1066:	80 ff       	sbrs	r24, 0
    1068:	04 c0       	rjmp	.+8      	; 0x1072 <menu_navigation+0x84>
				move_arrow(1);		
    106a:	81 e0       	ldi	r24, 0x01	; 1
    106c:	0e 94 6d 06 	call	0xcda	; 0xcda <move_arrow>
    1070:	05 c0       	rjmp	.+10     	; 0x107c <menu_navigation+0x8e>
			}
			else GUI_main_menu(((int)(curr_arrow_pos/2))-1,0);
    1072:	86 95       	lsr	r24
    1074:	60 e0       	ldi	r22, 0x00	; 0
    1076:	81 50       	subi	r24, 0x01	; 1
    1078:	0e 94 7f 06 	call	0xcfe	; 0xcfe <GUI_main_menu>
			curr_arrow_pos=curr_arrow_pos-1;
    107c:	80 91 5e 03 	lds	r24, 0x035E	; 0x80035e <curr_arrow_pos>
    1080:	81 50       	subi	r24, 0x01	; 1
    1082:	80 93 5e 03 	sts	0x035E, r24	; 0x80035e <curr_arrow_pos>
		
	
		//printf("CURRENT ARROW=%d\n",curr_arrow_pos);
		//printf("joystick=%d\n",joystick.y_pos);
		
		if(joystick.x_currdir == "RIGHT"){
    1086:	80 91 76 03 	lds	r24, 0x0376	; 0x800376 <joystick+0x2>
    108a:	90 91 77 03 	lds	r25, 0x0377	; 0x800377 <joystick+0x3>
    108e:	82 59       	subi	r24, 0x92	; 146
    1090:	92 40       	sbci	r25, 0x02	; 2
    1092:	a9 f5       	brne	.+106    	; 0x10fe <menu_navigation+0x110>
			set_current_node(get_current_node()->child[curr_arrow_pos]);
    1094:	0e 94 56 06 	call	0xcac	; 0xcac <get_current_node>
    1098:	20 91 5e 03 	lds	r18, 0x035E	; 0x80035e <curr_arrow_pos>
    109c:	30 e0       	ldi	r19, 0x00	; 0
    109e:	2e 5f       	subi	r18, 0xFE	; 254
    10a0:	3f 4f       	sbci	r19, 0xFF	; 255
    10a2:	22 0f       	add	r18, r18
    10a4:	33 1f       	adc	r19, r19
    10a6:	82 0f       	add	r24, r18
    10a8:	93 1f       	adc	r25, r19
    10aa:	fc 01       	movw	r30, r24
    10ac:	80 81       	ld	r24, Z
    10ae:	91 81       	ldd	r25, Z+1	; 0x01
    10b0:	0e 94 51 06 	call	0xca2	; 0xca2 <set_current_node>
			get_current_node()->fun_ptr();
    10b4:	0e 94 56 06 	call	0xcac	; 0xcac <get_current_node>
    10b8:	dc 01       	movw	r26, r24
    10ba:	1e 96       	adiw	r26, 0x0e	; 14
    10bc:	ed 91       	ld	r30, X+
    10be:	fc 91       	ld	r31, X
    10c0:	1f 97       	sbiw	r26, 0x0f	; 15
    10c2:	09 95       	icall
    10c4:	1c c0       	rjmp	.+56     	; 0x10fe <menu_navigation+0x110>
		}
		
	}

	else{
		if(joystick.x_currdir == "LEFT"){
    10c6:	80 91 76 03 	lds	r24, 0x0376	; 0x800376 <joystick+0x2>
    10ca:	90 91 77 03 	lds	r25, 0x0377	; 0x800377 <joystick+0x3>
    10ce:	8d 58       	subi	r24, 0x8D	; 141
    10d0:	92 40       	sbci	r25, 0x02	; 2
    10d2:	a9 f4       	brne	.+42     	; 0x10fe <menu_navigation+0x110>
			set_current_node(get_current_node()->parent);
    10d4:	0e 94 56 06 	call	0xcac	; 0xcac <get_current_node>
    10d8:	fc 01       	movw	r30, r24
    10da:	82 81       	ldd	r24, Z+2	; 0x02
    10dc:	93 81       	ldd	r25, Z+3	; 0x03
    10de:	0e 94 51 06 	call	0xca2	; 0xca2 <set_current_node>
			get_current_node()->fun_ptr(((int)(curr_arrow_pos/2)),1);
    10e2:	0e 94 56 06 	call	0xcac	; 0xcac <get_current_node>
    10e6:	dc 01       	movw	r26, r24
    10e8:	1e 96       	adiw	r26, 0x0e	; 14
    10ea:	ed 91       	ld	r30, X+
    10ec:	fc 91       	ld	r31, X
    10ee:	1f 97       	sbiw	r26, 0x0f	; 15
    10f0:	80 91 5e 03 	lds	r24, 0x035E	; 0x80035e <curr_arrow_pos>
    10f4:	86 95       	lsr	r24
    10f6:	61 e0       	ldi	r22, 0x01	; 1
    10f8:	70 e0       	ldi	r23, 0x00	; 0
    10fa:	90 e0       	ldi	r25, 0x00	; 0
    10fc:	09 95       	icall
	#else
		//round up by default
		__ticks_dc = (uint32_t)(ceil(fabs(__tmp)));
	#endif

	__builtin_avr_delay_cycles(__ticks_dc);
    10fe:	bf e3       	ldi	r27, 0x3F	; 63
    1100:	ed e0       	ldi	r30, 0x0D	; 13
    1102:	f3 e0       	ldi	r31, 0x03	; 3
    1104:	b1 50       	subi	r27, 0x01	; 1
    1106:	e0 40       	sbci	r30, 0x00	; 0
    1108:	f0 40       	sbci	r31, 0x00	; 0
    110a:	e1 f7       	brne	.-8      	; 0x1104 <menu_navigation+0x116>
    110c:	00 c0       	rjmp	.+0      	; 0x110e <menu_navigation+0x120>
    110e:	00 00       	nop
    1110:	08 95       	ret

00001112 <play_init>:
CAN_message score_message;
void play_init(){
	printf("START NODE 1\n\r");
    1112:	8d e4       	ldi	r24, 0x4D	; 77
    1114:	93 e0       	ldi	r25, 0x03	; 3
    1116:	9f 93       	push	r25
    1118:	8f 93       	push	r24
    111a:	0e 94 59 0a 	call	0x14b2	; 0x14b2 <printf>

}
    111e:	0f 90       	pop	r0
    1120:	0f 90       	pop	r0
    1122:	08 95       	ret

00001124 <routine>:
void routine(){
	menu_navigation();
    1124:	0e 94 f7 07 	call	0xfee	; 0xfee <menu_navigation>
	CAN_send_slider();
    1128:	0e 94 89 04 	call	0x912	; 0x912 <CAN_send_slider>
	CAN_receive(&score_message);
    112c:	81 e6       	ldi	r24, 0x61	; 97
    112e:	93 e0       	ldi	r25, 0x03	; 3
    1130:	0e 94 2c 03 	call	0x658	; 0x658 <CAN_receive>
	check_game(&score_message);
    1134:	81 e6       	ldi	r24, 0x61	; 97
    1136:	93 e0       	ldi	r25, 0x03	; 3
    1138:	0e 94 fc 06 	call	0xdf8	; 0xdf8 <check_game>
    113c:	2f e3       	ldi	r18, 0x3F	; 63
    113e:	8d e0       	ldi	r24, 0x0D	; 13
    1140:	93 e0       	ldi	r25, 0x03	; 3
    1142:	21 50       	subi	r18, 0x01	; 1
    1144:	80 40       	sbci	r24, 0x00	; 0
    1146:	90 40       	sbci	r25, 0x00	; 0
    1148:	e1 f7       	brne	.-8      	; 0x1142 <routine+0x1e>
    114a:	00 c0       	rjmp	.+0      	; 0x114c <routine+0x28>
    114c:	00 00       	nop
    114e:	08 95       	ret

00001150 <main>:




int main(){
	uart_init(9600);
    1150:	80 e8       	ldi	r24, 0x80	; 128
    1152:	95 e2       	ldi	r25, 0x25	; 37
    1154:	0e 94 ef 01 	call	0x3de	; 0x3de <uart_init>
	stdout = &mystdout;
    1158:	86 e0       	ldi	r24, 0x06	; 6
    115a:	91 e0       	ldi	r25, 0x01	; 1
    115c:	90 93 88 03 	sts	0x0388, r25	; 0x800388 <__iob+0x3>
    1160:	80 93 87 03 	sts	0x0387, r24	; 0x800387 <__iob+0x2>
	xmem_init();
    1164:	0e 94 fd 01 	call	0x3fa	; 0x3fa <xmem_init>
	PWM_init();
    1168:	0e 94 0e 02 	call	0x41c	; 0x41c <PWM_init>
	OLED_init();
    116c:	0e 94 c4 04 	call	0x988	; 0x988 <OLED_init>
	OLED_clear();
    1170:	0e 94 2b 05 	call	0xa56	; 0xa56 <OLED_clear>
	GUI_menu_init();
    1174:	0e 94 42 07 	call	0xe84	; 0xe84 <GUI_menu_init>
	MCP2515_init();
    1178:	0e 94 8e 02 	call	0x51c	; 0x51c <MCP2515_init>
	button_init();
    117c:	0e 94 80 04 	call	0x900	; 0x900 <button_init>
	play_init();
    1180:	0e 94 89 08 	call	0x1112	; 0x1112 <play_init>
	while (1){
		routine();
    1184:	0e 94 92 08 	call	0x1124	; 0x1124 <routine>
    1188:	fd cf       	rjmp	.-6      	; 0x1184 <main+0x34>

0000118a <__divmodhi4>:
    118a:	97 fb       	bst	r25, 7
    118c:	07 2e       	mov	r0, r23
    118e:	16 f4       	brtc	.+4      	; 0x1194 <__divmodhi4+0xa>
    1190:	00 94       	com	r0
    1192:	07 d0       	rcall	.+14     	; 0x11a2 <__divmodhi4_neg1>
    1194:	77 fd       	sbrc	r23, 7
    1196:	09 d0       	rcall	.+18     	; 0x11aa <__divmodhi4_neg2>
    1198:	0e 94 d9 08 	call	0x11b2	; 0x11b2 <__udivmodhi4>
    119c:	07 fc       	sbrc	r0, 7
    119e:	05 d0       	rcall	.+10     	; 0x11aa <__divmodhi4_neg2>
    11a0:	3e f4       	brtc	.+14     	; 0x11b0 <__divmodhi4_exit>

000011a2 <__divmodhi4_neg1>:
    11a2:	90 95       	com	r25
    11a4:	81 95       	neg	r24
    11a6:	9f 4f       	sbci	r25, 0xFF	; 255
    11a8:	08 95       	ret

000011aa <__divmodhi4_neg2>:
    11aa:	70 95       	com	r23
    11ac:	61 95       	neg	r22
    11ae:	7f 4f       	sbci	r23, 0xFF	; 255

000011b0 <__divmodhi4_exit>:
    11b0:	08 95       	ret

000011b2 <__udivmodhi4>:
    11b2:	aa 1b       	sub	r26, r26
    11b4:	bb 1b       	sub	r27, r27
    11b6:	51 e1       	ldi	r21, 0x11	; 17
    11b8:	07 c0       	rjmp	.+14     	; 0x11c8 <__udivmodhi4_ep>

000011ba <__udivmodhi4_loop>:
    11ba:	aa 1f       	adc	r26, r26
    11bc:	bb 1f       	adc	r27, r27
    11be:	a6 17       	cp	r26, r22
    11c0:	b7 07       	cpc	r27, r23
    11c2:	10 f0       	brcs	.+4      	; 0x11c8 <__udivmodhi4_ep>
    11c4:	a6 1b       	sub	r26, r22
    11c6:	b7 0b       	sbc	r27, r23

000011c8 <__udivmodhi4_ep>:
    11c8:	88 1f       	adc	r24, r24
    11ca:	99 1f       	adc	r25, r25
    11cc:	5a 95       	dec	r21
    11ce:	a9 f7       	brne	.-22     	; 0x11ba <__udivmodhi4_loop>
    11d0:	80 95       	com	r24
    11d2:	90 95       	com	r25
    11d4:	bc 01       	movw	r22, r24
    11d6:	cd 01       	movw	r24, r26
    11d8:	08 95       	ret

000011da <malloc>:
    11da:	0f 93       	push	r16
    11dc:	1f 93       	push	r17
    11de:	cf 93       	push	r28
    11e0:	df 93       	push	r29
    11e2:	82 30       	cpi	r24, 0x02	; 2
    11e4:	91 05       	cpc	r25, r1
    11e6:	10 f4       	brcc	.+4      	; 0x11ec <malloc+0x12>
    11e8:	82 e0       	ldi	r24, 0x02	; 2
    11ea:	90 e0       	ldi	r25, 0x00	; 0
    11ec:	e0 91 83 03 	lds	r30, 0x0383	; 0x800383 <__flp>
    11f0:	f0 91 84 03 	lds	r31, 0x0384	; 0x800384 <__flp+0x1>
    11f4:	20 e0       	ldi	r18, 0x00	; 0
    11f6:	30 e0       	ldi	r19, 0x00	; 0
    11f8:	a0 e0       	ldi	r26, 0x00	; 0
    11fa:	b0 e0       	ldi	r27, 0x00	; 0
    11fc:	30 97       	sbiw	r30, 0x00	; 0
    11fe:	19 f1       	breq	.+70     	; 0x1246 <malloc+0x6c>
    1200:	40 81       	ld	r20, Z
    1202:	51 81       	ldd	r21, Z+1	; 0x01
    1204:	02 81       	ldd	r16, Z+2	; 0x02
    1206:	13 81       	ldd	r17, Z+3	; 0x03
    1208:	48 17       	cp	r20, r24
    120a:	59 07       	cpc	r21, r25
    120c:	c8 f0       	brcs	.+50     	; 0x1240 <malloc+0x66>
    120e:	84 17       	cp	r24, r20
    1210:	95 07       	cpc	r25, r21
    1212:	69 f4       	brne	.+26     	; 0x122e <malloc+0x54>
    1214:	10 97       	sbiw	r26, 0x00	; 0
    1216:	31 f0       	breq	.+12     	; 0x1224 <malloc+0x4a>
    1218:	12 96       	adiw	r26, 0x02	; 2
    121a:	0c 93       	st	X, r16
    121c:	12 97       	sbiw	r26, 0x02	; 2
    121e:	13 96       	adiw	r26, 0x03	; 3
    1220:	1c 93       	st	X, r17
    1222:	27 c0       	rjmp	.+78     	; 0x1272 <malloc+0x98>
    1224:	00 93 83 03 	sts	0x0383, r16	; 0x800383 <__flp>
    1228:	10 93 84 03 	sts	0x0384, r17	; 0x800384 <__flp+0x1>
    122c:	22 c0       	rjmp	.+68     	; 0x1272 <malloc+0x98>
    122e:	21 15       	cp	r18, r1
    1230:	31 05       	cpc	r19, r1
    1232:	19 f0       	breq	.+6      	; 0x123a <malloc+0x60>
    1234:	42 17       	cp	r20, r18
    1236:	53 07       	cpc	r21, r19
    1238:	18 f4       	brcc	.+6      	; 0x1240 <malloc+0x66>
    123a:	9a 01       	movw	r18, r20
    123c:	bd 01       	movw	r22, r26
    123e:	ef 01       	movw	r28, r30
    1240:	df 01       	movw	r26, r30
    1242:	f8 01       	movw	r30, r16
    1244:	db cf       	rjmp	.-74     	; 0x11fc <malloc+0x22>
    1246:	21 15       	cp	r18, r1
    1248:	31 05       	cpc	r19, r1
    124a:	f9 f0       	breq	.+62     	; 0x128a <malloc+0xb0>
    124c:	28 1b       	sub	r18, r24
    124e:	39 0b       	sbc	r19, r25
    1250:	24 30       	cpi	r18, 0x04	; 4
    1252:	31 05       	cpc	r19, r1
    1254:	80 f4       	brcc	.+32     	; 0x1276 <malloc+0x9c>
    1256:	8a 81       	ldd	r24, Y+2	; 0x02
    1258:	9b 81       	ldd	r25, Y+3	; 0x03
    125a:	61 15       	cp	r22, r1
    125c:	71 05       	cpc	r23, r1
    125e:	21 f0       	breq	.+8      	; 0x1268 <malloc+0x8e>
    1260:	fb 01       	movw	r30, r22
    1262:	93 83       	std	Z+3, r25	; 0x03
    1264:	82 83       	std	Z+2, r24	; 0x02
    1266:	04 c0       	rjmp	.+8      	; 0x1270 <malloc+0x96>
    1268:	90 93 84 03 	sts	0x0384, r25	; 0x800384 <__flp+0x1>
    126c:	80 93 83 03 	sts	0x0383, r24	; 0x800383 <__flp>
    1270:	fe 01       	movw	r30, r28
    1272:	32 96       	adiw	r30, 0x02	; 2
    1274:	44 c0       	rjmp	.+136    	; 0x12fe <malloc+0x124>
    1276:	fe 01       	movw	r30, r28
    1278:	e2 0f       	add	r30, r18
    127a:	f3 1f       	adc	r31, r19
    127c:	81 93       	st	Z+, r24
    127e:	91 93       	st	Z+, r25
    1280:	22 50       	subi	r18, 0x02	; 2
    1282:	31 09       	sbc	r19, r1
    1284:	39 83       	std	Y+1, r19	; 0x01
    1286:	28 83       	st	Y, r18
    1288:	3a c0       	rjmp	.+116    	; 0x12fe <malloc+0x124>
    128a:	20 91 81 03 	lds	r18, 0x0381	; 0x800381 <__brkval>
    128e:	30 91 82 03 	lds	r19, 0x0382	; 0x800382 <__brkval+0x1>
    1292:	23 2b       	or	r18, r19
    1294:	41 f4       	brne	.+16     	; 0x12a6 <malloc+0xcc>
    1296:	20 91 02 01 	lds	r18, 0x0102	; 0x800102 <__malloc_heap_start>
    129a:	30 91 03 01 	lds	r19, 0x0103	; 0x800103 <__malloc_heap_start+0x1>
    129e:	30 93 82 03 	sts	0x0382, r19	; 0x800382 <__brkval+0x1>
    12a2:	20 93 81 03 	sts	0x0381, r18	; 0x800381 <__brkval>
    12a6:	20 91 00 01 	lds	r18, 0x0100	; 0x800100 <__DATA_REGION_ORIGIN__>
    12aa:	30 91 01 01 	lds	r19, 0x0101	; 0x800101 <__DATA_REGION_ORIGIN__+0x1>
    12ae:	21 15       	cp	r18, r1
    12b0:	31 05       	cpc	r19, r1
    12b2:	41 f4       	brne	.+16     	; 0x12c4 <malloc+0xea>
    12b4:	2d b7       	in	r18, 0x3d	; 61
    12b6:	3e b7       	in	r19, 0x3e	; 62
    12b8:	40 91 04 01 	lds	r20, 0x0104	; 0x800104 <__malloc_margin>
    12bc:	50 91 05 01 	lds	r21, 0x0105	; 0x800105 <__malloc_margin+0x1>
    12c0:	24 1b       	sub	r18, r20
    12c2:	35 0b       	sbc	r19, r21
    12c4:	e0 91 81 03 	lds	r30, 0x0381	; 0x800381 <__brkval>
    12c8:	f0 91 82 03 	lds	r31, 0x0382	; 0x800382 <__brkval+0x1>
    12cc:	e2 17       	cp	r30, r18
    12ce:	f3 07       	cpc	r31, r19
    12d0:	a0 f4       	brcc	.+40     	; 0x12fa <malloc+0x120>
    12d2:	2e 1b       	sub	r18, r30
    12d4:	3f 0b       	sbc	r19, r31
    12d6:	28 17       	cp	r18, r24
    12d8:	39 07       	cpc	r19, r25
    12da:	78 f0       	brcs	.+30     	; 0x12fa <malloc+0x120>
    12dc:	ac 01       	movw	r20, r24
    12de:	4e 5f       	subi	r20, 0xFE	; 254
    12e0:	5f 4f       	sbci	r21, 0xFF	; 255
    12e2:	24 17       	cp	r18, r20
    12e4:	35 07       	cpc	r19, r21
    12e6:	48 f0       	brcs	.+18     	; 0x12fa <malloc+0x120>
    12e8:	4e 0f       	add	r20, r30
    12ea:	5f 1f       	adc	r21, r31
    12ec:	50 93 82 03 	sts	0x0382, r21	; 0x800382 <__brkval+0x1>
    12f0:	40 93 81 03 	sts	0x0381, r20	; 0x800381 <__brkval>
    12f4:	81 93       	st	Z+, r24
    12f6:	91 93       	st	Z+, r25
    12f8:	02 c0       	rjmp	.+4      	; 0x12fe <malloc+0x124>
    12fa:	e0 e0       	ldi	r30, 0x00	; 0
    12fc:	f0 e0       	ldi	r31, 0x00	; 0
    12fe:	cf 01       	movw	r24, r30
    1300:	df 91       	pop	r29
    1302:	cf 91       	pop	r28
    1304:	1f 91       	pop	r17
    1306:	0f 91       	pop	r16
    1308:	08 95       	ret

0000130a <free>:
    130a:	cf 93       	push	r28
    130c:	df 93       	push	r29
    130e:	00 97       	sbiw	r24, 0x00	; 0
    1310:	09 f4       	brne	.+2      	; 0x1314 <free+0xa>
    1312:	81 c0       	rjmp	.+258    	; 0x1416 <free+0x10c>
    1314:	fc 01       	movw	r30, r24
    1316:	32 97       	sbiw	r30, 0x02	; 2
    1318:	13 82       	std	Z+3, r1	; 0x03
    131a:	12 82       	std	Z+2, r1	; 0x02
    131c:	a0 91 83 03 	lds	r26, 0x0383	; 0x800383 <__flp>
    1320:	b0 91 84 03 	lds	r27, 0x0384	; 0x800384 <__flp+0x1>
    1324:	10 97       	sbiw	r26, 0x00	; 0
    1326:	81 f4       	brne	.+32     	; 0x1348 <free+0x3e>
    1328:	20 81       	ld	r18, Z
    132a:	31 81       	ldd	r19, Z+1	; 0x01
    132c:	82 0f       	add	r24, r18
    132e:	93 1f       	adc	r25, r19
    1330:	20 91 81 03 	lds	r18, 0x0381	; 0x800381 <__brkval>
    1334:	30 91 82 03 	lds	r19, 0x0382	; 0x800382 <__brkval+0x1>
    1338:	28 17       	cp	r18, r24
    133a:	39 07       	cpc	r19, r25
    133c:	51 f5       	brne	.+84     	; 0x1392 <free+0x88>
    133e:	f0 93 82 03 	sts	0x0382, r31	; 0x800382 <__brkval+0x1>
    1342:	e0 93 81 03 	sts	0x0381, r30	; 0x800381 <__brkval>
    1346:	67 c0       	rjmp	.+206    	; 0x1416 <free+0x10c>
    1348:	ed 01       	movw	r28, r26
    134a:	20 e0       	ldi	r18, 0x00	; 0
    134c:	30 e0       	ldi	r19, 0x00	; 0
    134e:	ce 17       	cp	r28, r30
    1350:	df 07       	cpc	r29, r31
    1352:	40 f4       	brcc	.+16     	; 0x1364 <free+0x5a>
    1354:	4a 81       	ldd	r20, Y+2	; 0x02
    1356:	5b 81       	ldd	r21, Y+3	; 0x03
    1358:	9e 01       	movw	r18, r28
    135a:	41 15       	cp	r20, r1
    135c:	51 05       	cpc	r21, r1
    135e:	f1 f0       	breq	.+60     	; 0x139c <free+0x92>
    1360:	ea 01       	movw	r28, r20
    1362:	f5 cf       	rjmp	.-22     	; 0x134e <free+0x44>
    1364:	d3 83       	std	Z+3, r29	; 0x03
    1366:	c2 83       	std	Z+2, r28	; 0x02
    1368:	40 81       	ld	r20, Z
    136a:	51 81       	ldd	r21, Z+1	; 0x01
    136c:	84 0f       	add	r24, r20
    136e:	95 1f       	adc	r25, r21
    1370:	c8 17       	cp	r28, r24
    1372:	d9 07       	cpc	r29, r25
    1374:	59 f4       	brne	.+22     	; 0x138c <free+0x82>
    1376:	88 81       	ld	r24, Y
    1378:	99 81       	ldd	r25, Y+1	; 0x01
    137a:	84 0f       	add	r24, r20
    137c:	95 1f       	adc	r25, r21
    137e:	02 96       	adiw	r24, 0x02	; 2
    1380:	91 83       	std	Z+1, r25	; 0x01
    1382:	80 83       	st	Z, r24
    1384:	8a 81       	ldd	r24, Y+2	; 0x02
    1386:	9b 81       	ldd	r25, Y+3	; 0x03
    1388:	93 83       	std	Z+3, r25	; 0x03
    138a:	82 83       	std	Z+2, r24	; 0x02
    138c:	21 15       	cp	r18, r1
    138e:	31 05       	cpc	r19, r1
    1390:	29 f4       	brne	.+10     	; 0x139c <free+0x92>
    1392:	f0 93 84 03 	sts	0x0384, r31	; 0x800384 <__flp+0x1>
    1396:	e0 93 83 03 	sts	0x0383, r30	; 0x800383 <__flp>
    139a:	3d c0       	rjmp	.+122    	; 0x1416 <free+0x10c>
    139c:	e9 01       	movw	r28, r18
    139e:	fb 83       	std	Y+3, r31	; 0x03
    13a0:	ea 83       	std	Y+2, r30	; 0x02
    13a2:	49 91       	ld	r20, Y+
    13a4:	59 91       	ld	r21, Y+
    13a6:	c4 0f       	add	r28, r20
    13a8:	d5 1f       	adc	r29, r21
    13aa:	ec 17       	cp	r30, r28
    13ac:	fd 07       	cpc	r31, r29
    13ae:	61 f4       	brne	.+24     	; 0x13c8 <free+0xbe>
    13b0:	80 81       	ld	r24, Z
    13b2:	91 81       	ldd	r25, Z+1	; 0x01
    13b4:	84 0f       	add	r24, r20
    13b6:	95 1f       	adc	r25, r21
    13b8:	02 96       	adiw	r24, 0x02	; 2
    13ba:	e9 01       	movw	r28, r18
    13bc:	99 83       	std	Y+1, r25	; 0x01
    13be:	88 83       	st	Y, r24
    13c0:	82 81       	ldd	r24, Z+2	; 0x02
    13c2:	93 81       	ldd	r25, Z+3	; 0x03
    13c4:	9b 83       	std	Y+3, r25	; 0x03
    13c6:	8a 83       	std	Y+2, r24	; 0x02
    13c8:	e0 e0       	ldi	r30, 0x00	; 0
    13ca:	f0 e0       	ldi	r31, 0x00	; 0
    13cc:	12 96       	adiw	r26, 0x02	; 2
    13ce:	8d 91       	ld	r24, X+
    13d0:	9c 91       	ld	r25, X
    13d2:	13 97       	sbiw	r26, 0x03	; 3
    13d4:	00 97       	sbiw	r24, 0x00	; 0
    13d6:	19 f0       	breq	.+6      	; 0x13de <free+0xd4>
    13d8:	fd 01       	movw	r30, r26
    13da:	dc 01       	movw	r26, r24
    13dc:	f7 cf       	rjmp	.-18     	; 0x13cc <free+0xc2>
    13de:	8d 91       	ld	r24, X+
    13e0:	9c 91       	ld	r25, X
    13e2:	11 97       	sbiw	r26, 0x01	; 1
    13e4:	9d 01       	movw	r18, r26
    13e6:	2e 5f       	subi	r18, 0xFE	; 254
    13e8:	3f 4f       	sbci	r19, 0xFF	; 255
    13ea:	82 0f       	add	r24, r18
    13ec:	93 1f       	adc	r25, r19
    13ee:	20 91 81 03 	lds	r18, 0x0381	; 0x800381 <__brkval>
    13f2:	30 91 82 03 	lds	r19, 0x0382	; 0x800382 <__brkval+0x1>
    13f6:	28 17       	cp	r18, r24
    13f8:	39 07       	cpc	r19, r25
    13fa:	69 f4       	brne	.+26     	; 0x1416 <free+0x10c>
    13fc:	30 97       	sbiw	r30, 0x00	; 0
    13fe:	29 f4       	brne	.+10     	; 0x140a <free+0x100>
    1400:	10 92 84 03 	sts	0x0384, r1	; 0x800384 <__flp+0x1>
    1404:	10 92 83 03 	sts	0x0383, r1	; 0x800383 <__flp>
    1408:	02 c0       	rjmp	.+4      	; 0x140e <free+0x104>
    140a:	13 82       	std	Z+3, r1	; 0x03
    140c:	12 82       	std	Z+2, r1	; 0x02
    140e:	b0 93 82 03 	sts	0x0382, r27	; 0x800382 <__brkval+0x1>
    1412:	a0 93 81 03 	sts	0x0381, r26	; 0x800381 <__brkval>
    1416:	df 91       	pop	r29
    1418:	cf 91       	pop	r28
    141a:	08 95       	ret

0000141c <fdevopen>:
    141c:	0f 93       	push	r16
    141e:	1f 93       	push	r17
    1420:	cf 93       	push	r28
    1422:	df 93       	push	r29
    1424:	00 97       	sbiw	r24, 0x00	; 0
    1426:	31 f4       	brne	.+12     	; 0x1434 <fdevopen+0x18>
    1428:	61 15       	cp	r22, r1
    142a:	71 05       	cpc	r23, r1
    142c:	19 f4       	brne	.+6      	; 0x1434 <fdevopen+0x18>
    142e:	80 e0       	ldi	r24, 0x00	; 0
    1430:	90 e0       	ldi	r25, 0x00	; 0
    1432:	3a c0       	rjmp	.+116    	; 0x14a8 <fdevopen+0x8c>
    1434:	8b 01       	movw	r16, r22
    1436:	ec 01       	movw	r28, r24
    1438:	6e e0       	ldi	r22, 0x0E	; 14
    143a:	70 e0       	ldi	r23, 0x00	; 0
    143c:	81 e0       	ldi	r24, 0x01	; 1
    143e:	90 e0       	ldi	r25, 0x00	; 0
    1440:	0e 94 a2 0c 	call	0x1944	; 0x1944 <calloc>
    1444:	fc 01       	movw	r30, r24
    1446:	89 2b       	or	r24, r25
    1448:	91 f3       	breq	.-28     	; 0x142e <fdevopen+0x12>
    144a:	80 e8       	ldi	r24, 0x80	; 128
    144c:	83 83       	std	Z+3, r24	; 0x03
    144e:	01 15       	cp	r16, r1
    1450:	11 05       	cpc	r17, r1
    1452:	71 f0       	breq	.+28     	; 0x1470 <fdevopen+0x54>
    1454:	13 87       	std	Z+11, r17	; 0x0b
    1456:	02 87       	std	Z+10, r16	; 0x0a
    1458:	81 e8       	ldi	r24, 0x81	; 129
    145a:	83 83       	std	Z+3, r24	; 0x03
    145c:	80 91 85 03 	lds	r24, 0x0385	; 0x800385 <__iob>
    1460:	90 91 86 03 	lds	r25, 0x0386	; 0x800386 <__iob+0x1>
    1464:	89 2b       	or	r24, r25
    1466:	21 f4       	brne	.+8      	; 0x1470 <fdevopen+0x54>
    1468:	f0 93 86 03 	sts	0x0386, r31	; 0x800386 <__iob+0x1>
    146c:	e0 93 85 03 	sts	0x0385, r30	; 0x800385 <__iob>
    1470:	20 97       	sbiw	r28, 0x00	; 0
    1472:	c9 f0       	breq	.+50     	; 0x14a6 <fdevopen+0x8a>
    1474:	d1 87       	std	Z+9, r29	; 0x09
    1476:	c0 87       	std	Z+8, r28	; 0x08
    1478:	83 81       	ldd	r24, Z+3	; 0x03
    147a:	82 60       	ori	r24, 0x02	; 2
    147c:	83 83       	std	Z+3, r24	; 0x03
    147e:	80 91 87 03 	lds	r24, 0x0387	; 0x800387 <__iob+0x2>
    1482:	90 91 88 03 	lds	r25, 0x0388	; 0x800388 <__iob+0x3>
    1486:	89 2b       	or	r24, r25
    1488:	71 f4       	brne	.+28     	; 0x14a6 <fdevopen+0x8a>
    148a:	f0 93 88 03 	sts	0x0388, r31	; 0x800388 <__iob+0x3>
    148e:	e0 93 87 03 	sts	0x0387, r30	; 0x800387 <__iob+0x2>
    1492:	80 91 89 03 	lds	r24, 0x0389	; 0x800389 <__iob+0x4>
    1496:	90 91 8a 03 	lds	r25, 0x038A	; 0x80038a <__iob+0x5>
    149a:	89 2b       	or	r24, r25
    149c:	21 f4       	brne	.+8      	; 0x14a6 <fdevopen+0x8a>
    149e:	f0 93 8a 03 	sts	0x038A, r31	; 0x80038a <__iob+0x5>
    14a2:	e0 93 89 03 	sts	0x0389, r30	; 0x800389 <__iob+0x4>
    14a6:	cf 01       	movw	r24, r30
    14a8:	df 91       	pop	r29
    14aa:	cf 91       	pop	r28
    14ac:	1f 91       	pop	r17
    14ae:	0f 91       	pop	r16
    14b0:	08 95       	ret

000014b2 <printf>:
    14b2:	a0 e0       	ldi	r26, 0x00	; 0
    14b4:	b0 e0       	ldi	r27, 0x00	; 0
    14b6:	ef e5       	ldi	r30, 0x5F	; 95
    14b8:	fa e0       	ldi	r31, 0x0A	; 10
    14ba:	0c 94 85 0d 	jmp	0x1b0a	; 0x1b0a <__prologue_saves__+0x20>
    14be:	ae 01       	movw	r20, r28
    14c0:	4b 5f       	subi	r20, 0xFB	; 251
    14c2:	5f 4f       	sbci	r21, 0xFF	; 255
    14c4:	fa 01       	movw	r30, r20
    14c6:	61 91       	ld	r22, Z+
    14c8:	71 91       	ld	r23, Z+
    14ca:	af 01       	movw	r20, r30
    14cc:	80 91 87 03 	lds	r24, 0x0387	; 0x800387 <__iob+0x2>
    14d0:	90 91 88 03 	lds	r25, 0x0388	; 0x800388 <__iob+0x3>
    14d4:	0e 94 c1 0a 	call	0x1582	; 0x1582 <vfprintf>
    14d8:	e2 e0       	ldi	r30, 0x02	; 2
    14da:	0c 94 a1 0d 	jmp	0x1b42	; 0x1b42 <__epilogue_restores__+0x20>

000014de <puts>:
    14de:	0f 93       	push	r16
    14e0:	1f 93       	push	r17
    14e2:	cf 93       	push	r28
    14e4:	df 93       	push	r29
    14e6:	e0 91 87 03 	lds	r30, 0x0387	; 0x800387 <__iob+0x2>
    14ea:	f0 91 88 03 	lds	r31, 0x0388	; 0x800388 <__iob+0x3>
    14ee:	23 81       	ldd	r18, Z+3	; 0x03
    14f0:	21 ff       	sbrs	r18, 1
    14f2:	1b c0       	rjmp	.+54     	; 0x152a <puts+0x4c>
    14f4:	8c 01       	movw	r16, r24
    14f6:	d0 e0       	ldi	r29, 0x00	; 0
    14f8:	c0 e0       	ldi	r28, 0x00	; 0
    14fa:	f8 01       	movw	r30, r16
    14fc:	81 91       	ld	r24, Z+
    14fe:	8f 01       	movw	r16, r30
    1500:	60 91 87 03 	lds	r22, 0x0387	; 0x800387 <__iob+0x2>
    1504:	70 91 88 03 	lds	r23, 0x0388	; 0x800388 <__iob+0x3>
    1508:	db 01       	movw	r26, r22
    150a:	18 96       	adiw	r26, 0x08	; 8
    150c:	ed 91       	ld	r30, X+
    150e:	fc 91       	ld	r31, X
    1510:	19 97       	sbiw	r26, 0x09	; 9
    1512:	88 23       	and	r24, r24
    1514:	31 f0       	breq	.+12     	; 0x1522 <puts+0x44>
    1516:	09 95       	icall
    1518:	89 2b       	or	r24, r25
    151a:	79 f3       	breq	.-34     	; 0x14fa <puts+0x1c>
    151c:	df ef       	ldi	r29, 0xFF	; 255
    151e:	cf ef       	ldi	r28, 0xFF	; 255
    1520:	ec cf       	rjmp	.-40     	; 0x14fa <puts+0x1c>
    1522:	8a e0       	ldi	r24, 0x0A	; 10
    1524:	09 95       	icall
    1526:	89 2b       	or	r24, r25
    1528:	19 f0       	breq	.+6      	; 0x1530 <puts+0x52>
    152a:	8f ef       	ldi	r24, 0xFF	; 255
    152c:	9f ef       	ldi	r25, 0xFF	; 255
    152e:	02 c0       	rjmp	.+4      	; 0x1534 <puts+0x56>
    1530:	8d 2f       	mov	r24, r29
    1532:	9c 2f       	mov	r25, r28
    1534:	df 91       	pop	r29
    1536:	cf 91       	pop	r28
    1538:	1f 91       	pop	r17
    153a:	0f 91       	pop	r16
    153c:	08 95       	ret

0000153e <sprintf>:
    153e:	ae e0       	ldi	r26, 0x0E	; 14
    1540:	b0 e0       	ldi	r27, 0x00	; 0
    1542:	e5 ea       	ldi	r30, 0xA5	; 165
    1544:	fa e0       	ldi	r31, 0x0A	; 10
    1546:	0c 94 83 0d 	jmp	0x1b06	; 0x1b06 <__prologue_saves__+0x1c>
    154a:	0d 89       	ldd	r16, Y+21	; 0x15
    154c:	1e 89       	ldd	r17, Y+22	; 0x16
    154e:	86 e0       	ldi	r24, 0x06	; 6
    1550:	8c 83       	std	Y+4, r24	; 0x04
    1552:	1a 83       	std	Y+2, r17	; 0x02
    1554:	09 83       	std	Y+1, r16	; 0x01
    1556:	8f ef       	ldi	r24, 0xFF	; 255
    1558:	9f e7       	ldi	r25, 0x7F	; 127
    155a:	9e 83       	std	Y+6, r25	; 0x06
    155c:	8d 83       	std	Y+5, r24	; 0x05
    155e:	ae 01       	movw	r20, r28
    1560:	47 5e       	subi	r20, 0xE7	; 231
    1562:	5f 4f       	sbci	r21, 0xFF	; 255
    1564:	6f 89       	ldd	r22, Y+23	; 0x17
    1566:	78 8d       	ldd	r23, Y+24	; 0x18
    1568:	ce 01       	movw	r24, r28
    156a:	01 96       	adiw	r24, 0x01	; 1
    156c:	0e 94 c1 0a 	call	0x1582	; 0x1582 <vfprintf>
    1570:	ef 81       	ldd	r30, Y+7	; 0x07
    1572:	f8 85       	ldd	r31, Y+8	; 0x08
    1574:	e0 0f       	add	r30, r16
    1576:	f1 1f       	adc	r31, r17
    1578:	10 82       	st	Z, r1
    157a:	2e 96       	adiw	r28, 0x0e	; 14
    157c:	e4 e0       	ldi	r30, 0x04	; 4
    157e:	0c 94 9f 0d 	jmp	0x1b3e	; 0x1b3e <__epilogue_restores__+0x1c>

00001582 <vfprintf>:
    1582:	ab e0       	ldi	r26, 0x0B	; 11
    1584:	b0 e0       	ldi	r27, 0x00	; 0
    1586:	e7 ec       	ldi	r30, 0xC7	; 199
    1588:	fa e0       	ldi	r31, 0x0A	; 10
    158a:	0c 94 75 0d 	jmp	0x1aea	; 0x1aea <__prologue_saves__>
    158e:	6c 01       	movw	r12, r24
    1590:	7b 01       	movw	r14, r22
    1592:	8a 01       	movw	r16, r20
    1594:	fc 01       	movw	r30, r24
    1596:	17 82       	std	Z+7, r1	; 0x07
    1598:	16 82       	std	Z+6, r1	; 0x06
    159a:	83 81       	ldd	r24, Z+3	; 0x03
    159c:	81 ff       	sbrs	r24, 1
    159e:	cc c1       	rjmp	.+920    	; 0x1938 <vfprintf+0x3b6>
    15a0:	ce 01       	movw	r24, r28
    15a2:	01 96       	adiw	r24, 0x01	; 1
    15a4:	3c 01       	movw	r6, r24
    15a6:	f6 01       	movw	r30, r12
    15a8:	93 81       	ldd	r25, Z+3	; 0x03
    15aa:	f7 01       	movw	r30, r14
    15ac:	93 fd       	sbrc	r25, 3
    15ae:	85 91       	lpm	r24, Z+
    15b0:	93 ff       	sbrs	r25, 3
    15b2:	81 91       	ld	r24, Z+
    15b4:	7f 01       	movw	r14, r30
    15b6:	88 23       	and	r24, r24
    15b8:	09 f4       	brne	.+2      	; 0x15bc <vfprintf+0x3a>
    15ba:	ba c1       	rjmp	.+884    	; 0x1930 <vfprintf+0x3ae>
    15bc:	85 32       	cpi	r24, 0x25	; 37
    15be:	39 f4       	brne	.+14     	; 0x15ce <vfprintf+0x4c>
    15c0:	93 fd       	sbrc	r25, 3
    15c2:	85 91       	lpm	r24, Z+
    15c4:	93 ff       	sbrs	r25, 3
    15c6:	81 91       	ld	r24, Z+
    15c8:	7f 01       	movw	r14, r30
    15ca:	85 32       	cpi	r24, 0x25	; 37
    15cc:	29 f4       	brne	.+10     	; 0x15d8 <vfprintf+0x56>
    15ce:	b6 01       	movw	r22, r12
    15d0:	90 e0       	ldi	r25, 0x00	; 0
    15d2:	0e 94 db 0c 	call	0x19b6	; 0x19b6 <fputc>
    15d6:	e7 cf       	rjmp	.-50     	; 0x15a6 <vfprintf+0x24>
    15d8:	91 2c       	mov	r9, r1
    15da:	21 2c       	mov	r2, r1
    15dc:	31 2c       	mov	r3, r1
    15de:	ff e1       	ldi	r31, 0x1F	; 31
    15e0:	f3 15       	cp	r31, r3
    15e2:	d8 f0       	brcs	.+54     	; 0x161a <vfprintf+0x98>
    15e4:	8b 32       	cpi	r24, 0x2B	; 43
    15e6:	79 f0       	breq	.+30     	; 0x1606 <vfprintf+0x84>
    15e8:	38 f4       	brcc	.+14     	; 0x15f8 <vfprintf+0x76>
    15ea:	80 32       	cpi	r24, 0x20	; 32
    15ec:	79 f0       	breq	.+30     	; 0x160c <vfprintf+0x8a>
    15ee:	83 32       	cpi	r24, 0x23	; 35
    15f0:	a1 f4       	brne	.+40     	; 0x161a <vfprintf+0x98>
    15f2:	23 2d       	mov	r18, r3
    15f4:	20 61       	ori	r18, 0x10	; 16
    15f6:	1d c0       	rjmp	.+58     	; 0x1632 <vfprintf+0xb0>
    15f8:	8d 32       	cpi	r24, 0x2D	; 45
    15fa:	61 f0       	breq	.+24     	; 0x1614 <vfprintf+0x92>
    15fc:	80 33       	cpi	r24, 0x30	; 48
    15fe:	69 f4       	brne	.+26     	; 0x161a <vfprintf+0x98>
    1600:	23 2d       	mov	r18, r3
    1602:	21 60       	ori	r18, 0x01	; 1
    1604:	16 c0       	rjmp	.+44     	; 0x1632 <vfprintf+0xb0>
    1606:	83 2d       	mov	r24, r3
    1608:	82 60       	ori	r24, 0x02	; 2
    160a:	38 2e       	mov	r3, r24
    160c:	e3 2d       	mov	r30, r3
    160e:	e4 60       	ori	r30, 0x04	; 4
    1610:	3e 2e       	mov	r3, r30
    1612:	2a c0       	rjmp	.+84     	; 0x1668 <vfprintf+0xe6>
    1614:	f3 2d       	mov	r31, r3
    1616:	f8 60       	ori	r31, 0x08	; 8
    1618:	1d c0       	rjmp	.+58     	; 0x1654 <vfprintf+0xd2>
    161a:	37 fc       	sbrc	r3, 7
    161c:	2d c0       	rjmp	.+90     	; 0x1678 <vfprintf+0xf6>
    161e:	20 ed       	ldi	r18, 0xD0	; 208
    1620:	28 0f       	add	r18, r24
    1622:	2a 30       	cpi	r18, 0x0A	; 10
    1624:	40 f0       	brcs	.+16     	; 0x1636 <vfprintf+0xb4>
    1626:	8e 32       	cpi	r24, 0x2E	; 46
    1628:	b9 f4       	brne	.+46     	; 0x1658 <vfprintf+0xd6>
    162a:	36 fc       	sbrc	r3, 6
    162c:	81 c1       	rjmp	.+770    	; 0x1930 <vfprintf+0x3ae>
    162e:	23 2d       	mov	r18, r3
    1630:	20 64       	ori	r18, 0x40	; 64
    1632:	32 2e       	mov	r3, r18
    1634:	19 c0       	rjmp	.+50     	; 0x1668 <vfprintf+0xe6>
    1636:	36 fe       	sbrs	r3, 6
    1638:	06 c0       	rjmp	.+12     	; 0x1646 <vfprintf+0xc4>
    163a:	8a e0       	ldi	r24, 0x0A	; 10
    163c:	98 9e       	mul	r9, r24
    163e:	20 0d       	add	r18, r0
    1640:	11 24       	eor	r1, r1
    1642:	92 2e       	mov	r9, r18
    1644:	11 c0       	rjmp	.+34     	; 0x1668 <vfprintf+0xe6>
    1646:	ea e0       	ldi	r30, 0x0A	; 10
    1648:	2e 9e       	mul	r2, r30
    164a:	20 0d       	add	r18, r0
    164c:	11 24       	eor	r1, r1
    164e:	22 2e       	mov	r2, r18
    1650:	f3 2d       	mov	r31, r3
    1652:	f0 62       	ori	r31, 0x20	; 32
    1654:	3f 2e       	mov	r3, r31
    1656:	08 c0       	rjmp	.+16     	; 0x1668 <vfprintf+0xe6>
    1658:	8c 36       	cpi	r24, 0x6C	; 108
    165a:	21 f4       	brne	.+8      	; 0x1664 <vfprintf+0xe2>
    165c:	83 2d       	mov	r24, r3
    165e:	80 68       	ori	r24, 0x80	; 128
    1660:	38 2e       	mov	r3, r24
    1662:	02 c0       	rjmp	.+4      	; 0x1668 <vfprintf+0xe6>
    1664:	88 36       	cpi	r24, 0x68	; 104
    1666:	41 f4       	brne	.+16     	; 0x1678 <vfprintf+0xf6>
    1668:	f7 01       	movw	r30, r14
    166a:	93 fd       	sbrc	r25, 3
    166c:	85 91       	lpm	r24, Z+
    166e:	93 ff       	sbrs	r25, 3
    1670:	81 91       	ld	r24, Z+
    1672:	7f 01       	movw	r14, r30
    1674:	81 11       	cpse	r24, r1
    1676:	b3 cf       	rjmp	.-154    	; 0x15de <vfprintf+0x5c>
    1678:	98 2f       	mov	r25, r24
    167a:	9f 7d       	andi	r25, 0xDF	; 223
    167c:	95 54       	subi	r25, 0x45	; 69
    167e:	93 30       	cpi	r25, 0x03	; 3
    1680:	28 f4       	brcc	.+10     	; 0x168c <vfprintf+0x10a>
    1682:	0c 5f       	subi	r16, 0xFC	; 252
    1684:	1f 4f       	sbci	r17, 0xFF	; 255
    1686:	9f e3       	ldi	r25, 0x3F	; 63
    1688:	99 83       	std	Y+1, r25	; 0x01
    168a:	0d c0       	rjmp	.+26     	; 0x16a6 <vfprintf+0x124>
    168c:	83 36       	cpi	r24, 0x63	; 99
    168e:	31 f0       	breq	.+12     	; 0x169c <vfprintf+0x11a>
    1690:	83 37       	cpi	r24, 0x73	; 115
    1692:	71 f0       	breq	.+28     	; 0x16b0 <vfprintf+0x12e>
    1694:	83 35       	cpi	r24, 0x53	; 83
    1696:	09 f0       	breq	.+2      	; 0x169a <vfprintf+0x118>
    1698:	59 c0       	rjmp	.+178    	; 0x174c <vfprintf+0x1ca>
    169a:	21 c0       	rjmp	.+66     	; 0x16de <vfprintf+0x15c>
    169c:	f8 01       	movw	r30, r16
    169e:	80 81       	ld	r24, Z
    16a0:	89 83       	std	Y+1, r24	; 0x01
    16a2:	0e 5f       	subi	r16, 0xFE	; 254
    16a4:	1f 4f       	sbci	r17, 0xFF	; 255
    16a6:	88 24       	eor	r8, r8
    16a8:	83 94       	inc	r8
    16aa:	91 2c       	mov	r9, r1
    16ac:	53 01       	movw	r10, r6
    16ae:	13 c0       	rjmp	.+38     	; 0x16d6 <vfprintf+0x154>
    16b0:	28 01       	movw	r4, r16
    16b2:	f2 e0       	ldi	r31, 0x02	; 2
    16b4:	4f 0e       	add	r4, r31
    16b6:	51 1c       	adc	r5, r1
    16b8:	f8 01       	movw	r30, r16
    16ba:	a0 80       	ld	r10, Z
    16bc:	b1 80       	ldd	r11, Z+1	; 0x01
    16be:	36 fe       	sbrs	r3, 6
    16c0:	03 c0       	rjmp	.+6      	; 0x16c8 <vfprintf+0x146>
    16c2:	69 2d       	mov	r22, r9
    16c4:	70 e0       	ldi	r23, 0x00	; 0
    16c6:	02 c0       	rjmp	.+4      	; 0x16cc <vfprintf+0x14a>
    16c8:	6f ef       	ldi	r22, 0xFF	; 255
    16ca:	7f ef       	ldi	r23, 0xFF	; 255
    16cc:	c5 01       	movw	r24, r10
    16ce:	0e 94 d0 0c 	call	0x19a0	; 0x19a0 <strnlen>
    16d2:	4c 01       	movw	r8, r24
    16d4:	82 01       	movw	r16, r4
    16d6:	f3 2d       	mov	r31, r3
    16d8:	ff 77       	andi	r31, 0x7F	; 127
    16da:	3f 2e       	mov	r3, r31
    16dc:	16 c0       	rjmp	.+44     	; 0x170a <vfprintf+0x188>
    16de:	28 01       	movw	r4, r16
    16e0:	22 e0       	ldi	r18, 0x02	; 2
    16e2:	42 0e       	add	r4, r18
    16e4:	51 1c       	adc	r5, r1
    16e6:	f8 01       	movw	r30, r16
    16e8:	a0 80       	ld	r10, Z
    16ea:	b1 80       	ldd	r11, Z+1	; 0x01
    16ec:	36 fe       	sbrs	r3, 6
    16ee:	03 c0       	rjmp	.+6      	; 0x16f6 <vfprintf+0x174>
    16f0:	69 2d       	mov	r22, r9
    16f2:	70 e0       	ldi	r23, 0x00	; 0
    16f4:	02 c0       	rjmp	.+4      	; 0x16fa <vfprintf+0x178>
    16f6:	6f ef       	ldi	r22, 0xFF	; 255
    16f8:	7f ef       	ldi	r23, 0xFF	; 255
    16fa:	c5 01       	movw	r24, r10
    16fc:	0e 94 be 0c 	call	0x197c	; 0x197c <strnlen_P>
    1700:	4c 01       	movw	r8, r24
    1702:	f3 2d       	mov	r31, r3
    1704:	f0 68       	ori	r31, 0x80	; 128
    1706:	3f 2e       	mov	r3, r31
    1708:	82 01       	movw	r16, r4
    170a:	33 fc       	sbrc	r3, 3
    170c:	1b c0       	rjmp	.+54     	; 0x1744 <vfprintf+0x1c2>
    170e:	82 2d       	mov	r24, r2
    1710:	90 e0       	ldi	r25, 0x00	; 0
    1712:	88 16       	cp	r8, r24
    1714:	99 06       	cpc	r9, r25
    1716:	b0 f4       	brcc	.+44     	; 0x1744 <vfprintf+0x1c2>
    1718:	b6 01       	movw	r22, r12
    171a:	80 e2       	ldi	r24, 0x20	; 32
    171c:	90 e0       	ldi	r25, 0x00	; 0
    171e:	0e 94 db 0c 	call	0x19b6	; 0x19b6 <fputc>
    1722:	2a 94       	dec	r2
    1724:	f4 cf       	rjmp	.-24     	; 0x170e <vfprintf+0x18c>
    1726:	f5 01       	movw	r30, r10
    1728:	37 fc       	sbrc	r3, 7
    172a:	85 91       	lpm	r24, Z+
    172c:	37 fe       	sbrs	r3, 7
    172e:	81 91       	ld	r24, Z+
    1730:	5f 01       	movw	r10, r30
    1732:	b6 01       	movw	r22, r12
    1734:	90 e0       	ldi	r25, 0x00	; 0
    1736:	0e 94 db 0c 	call	0x19b6	; 0x19b6 <fputc>
    173a:	21 10       	cpse	r2, r1
    173c:	2a 94       	dec	r2
    173e:	21 e0       	ldi	r18, 0x01	; 1
    1740:	82 1a       	sub	r8, r18
    1742:	91 08       	sbc	r9, r1
    1744:	81 14       	cp	r8, r1
    1746:	91 04       	cpc	r9, r1
    1748:	71 f7       	brne	.-36     	; 0x1726 <vfprintf+0x1a4>
    174a:	e8 c0       	rjmp	.+464    	; 0x191c <vfprintf+0x39a>
    174c:	84 36       	cpi	r24, 0x64	; 100
    174e:	11 f0       	breq	.+4      	; 0x1754 <vfprintf+0x1d2>
    1750:	89 36       	cpi	r24, 0x69	; 105
    1752:	41 f5       	brne	.+80     	; 0x17a4 <vfprintf+0x222>
    1754:	f8 01       	movw	r30, r16
    1756:	37 fe       	sbrs	r3, 7
    1758:	07 c0       	rjmp	.+14     	; 0x1768 <vfprintf+0x1e6>
    175a:	60 81       	ld	r22, Z
    175c:	71 81       	ldd	r23, Z+1	; 0x01
    175e:	82 81       	ldd	r24, Z+2	; 0x02
    1760:	93 81       	ldd	r25, Z+3	; 0x03
    1762:	0c 5f       	subi	r16, 0xFC	; 252
    1764:	1f 4f       	sbci	r17, 0xFF	; 255
    1766:	08 c0       	rjmp	.+16     	; 0x1778 <vfprintf+0x1f6>
    1768:	60 81       	ld	r22, Z
    176a:	71 81       	ldd	r23, Z+1	; 0x01
    176c:	07 2e       	mov	r0, r23
    176e:	00 0c       	add	r0, r0
    1770:	88 0b       	sbc	r24, r24
    1772:	99 0b       	sbc	r25, r25
    1774:	0e 5f       	subi	r16, 0xFE	; 254
    1776:	1f 4f       	sbci	r17, 0xFF	; 255
    1778:	f3 2d       	mov	r31, r3
    177a:	ff 76       	andi	r31, 0x6F	; 111
    177c:	3f 2e       	mov	r3, r31
    177e:	97 ff       	sbrs	r25, 7
    1780:	09 c0       	rjmp	.+18     	; 0x1794 <vfprintf+0x212>
    1782:	90 95       	com	r25
    1784:	80 95       	com	r24
    1786:	70 95       	com	r23
    1788:	61 95       	neg	r22
    178a:	7f 4f       	sbci	r23, 0xFF	; 255
    178c:	8f 4f       	sbci	r24, 0xFF	; 255
    178e:	9f 4f       	sbci	r25, 0xFF	; 255
    1790:	f0 68       	ori	r31, 0x80	; 128
    1792:	3f 2e       	mov	r3, r31
    1794:	2a e0       	ldi	r18, 0x0A	; 10
    1796:	30 e0       	ldi	r19, 0x00	; 0
    1798:	a3 01       	movw	r20, r6
    179a:	0e 94 17 0d 	call	0x1a2e	; 0x1a2e <__ultoa_invert>
    179e:	88 2e       	mov	r8, r24
    17a0:	86 18       	sub	r8, r6
    17a2:	45 c0       	rjmp	.+138    	; 0x182e <vfprintf+0x2ac>
    17a4:	85 37       	cpi	r24, 0x75	; 117
    17a6:	31 f4       	brne	.+12     	; 0x17b4 <vfprintf+0x232>
    17a8:	23 2d       	mov	r18, r3
    17aa:	2f 7e       	andi	r18, 0xEF	; 239
    17ac:	b2 2e       	mov	r11, r18
    17ae:	2a e0       	ldi	r18, 0x0A	; 10
    17b0:	30 e0       	ldi	r19, 0x00	; 0
    17b2:	25 c0       	rjmp	.+74     	; 0x17fe <vfprintf+0x27c>
    17b4:	93 2d       	mov	r25, r3
    17b6:	99 7f       	andi	r25, 0xF9	; 249
    17b8:	b9 2e       	mov	r11, r25
    17ba:	8f 36       	cpi	r24, 0x6F	; 111
    17bc:	c1 f0       	breq	.+48     	; 0x17ee <vfprintf+0x26c>
    17be:	18 f4       	brcc	.+6      	; 0x17c6 <vfprintf+0x244>
    17c0:	88 35       	cpi	r24, 0x58	; 88
    17c2:	79 f0       	breq	.+30     	; 0x17e2 <vfprintf+0x260>
    17c4:	b5 c0       	rjmp	.+362    	; 0x1930 <vfprintf+0x3ae>
    17c6:	80 37       	cpi	r24, 0x70	; 112
    17c8:	19 f0       	breq	.+6      	; 0x17d0 <vfprintf+0x24e>
    17ca:	88 37       	cpi	r24, 0x78	; 120
    17cc:	21 f0       	breq	.+8      	; 0x17d6 <vfprintf+0x254>
    17ce:	b0 c0       	rjmp	.+352    	; 0x1930 <vfprintf+0x3ae>
    17d0:	e9 2f       	mov	r30, r25
    17d2:	e0 61       	ori	r30, 0x10	; 16
    17d4:	be 2e       	mov	r11, r30
    17d6:	b4 fe       	sbrs	r11, 4
    17d8:	0d c0       	rjmp	.+26     	; 0x17f4 <vfprintf+0x272>
    17da:	fb 2d       	mov	r31, r11
    17dc:	f4 60       	ori	r31, 0x04	; 4
    17de:	bf 2e       	mov	r11, r31
    17e0:	09 c0       	rjmp	.+18     	; 0x17f4 <vfprintf+0x272>
    17e2:	34 fe       	sbrs	r3, 4
    17e4:	0a c0       	rjmp	.+20     	; 0x17fa <vfprintf+0x278>
    17e6:	29 2f       	mov	r18, r25
    17e8:	26 60       	ori	r18, 0x06	; 6
    17ea:	b2 2e       	mov	r11, r18
    17ec:	06 c0       	rjmp	.+12     	; 0x17fa <vfprintf+0x278>
    17ee:	28 e0       	ldi	r18, 0x08	; 8
    17f0:	30 e0       	ldi	r19, 0x00	; 0
    17f2:	05 c0       	rjmp	.+10     	; 0x17fe <vfprintf+0x27c>
    17f4:	20 e1       	ldi	r18, 0x10	; 16
    17f6:	30 e0       	ldi	r19, 0x00	; 0
    17f8:	02 c0       	rjmp	.+4      	; 0x17fe <vfprintf+0x27c>
    17fa:	20 e1       	ldi	r18, 0x10	; 16
    17fc:	32 e0       	ldi	r19, 0x02	; 2
    17fe:	f8 01       	movw	r30, r16
    1800:	b7 fe       	sbrs	r11, 7
    1802:	07 c0       	rjmp	.+14     	; 0x1812 <vfprintf+0x290>
    1804:	60 81       	ld	r22, Z
    1806:	71 81       	ldd	r23, Z+1	; 0x01
    1808:	82 81       	ldd	r24, Z+2	; 0x02
    180a:	93 81       	ldd	r25, Z+3	; 0x03
    180c:	0c 5f       	subi	r16, 0xFC	; 252
    180e:	1f 4f       	sbci	r17, 0xFF	; 255
    1810:	06 c0       	rjmp	.+12     	; 0x181e <vfprintf+0x29c>
    1812:	60 81       	ld	r22, Z
    1814:	71 81       	ldd	r23, Z+1	; 0x01
    1816:	80 e0       	ldi	r24, 0x00	; 0
    1818:	90 e0       	ldi	r25, 0x00	; 0
    181a:	0e 5f       	subi	r16, 0xFE	; 254
    181c:	1f 4f       	sbci	r17, 0xFF	; 255
    181e:	a3 01       	movw	r20, r6
    1820:	0e 94 17 0d 	call	0x1a2e	; 0x1a2e <__ultoa_invert>
    1824:	88 2e       	mov	r8, r24
    1826:	86 18       	sub	r8, r6
    1828:	fb 2d       	mov	r31, r11
    182a:	ff 77       	andi	r31, 0x7F	; 127
    182c:	3f 2e       	mov	r3, r31
    182e:	36 fe       	sbrs	r3, 6
    1830:	0d c0       	rjmp	.+26     	; 0x184c <vfprintf+0x2ca>
    1832:	23 2d       	mov	r18, r3
    1834:	2e 7f       	andi	r18, 0xFE	; 254
    1836:	a2 2e       	mov	r10, r18
    1838:	89 14       	cp	r8, r9
    183a:	58 f4       	brcc	.+22     	; 0x1852 <vfprintf+0x2d0>
    183c:	34 fe       	sbrs	r3, 4
    183e:	0b c0       	rjmp	.+22     	; 0x1856 <vfprintf+0x2d4>
    1840:	32 fc       	sbrc	r3, 2
    1842:	09 c0       	rjmp	.+18     	; 0x1856 <vfprintf+0x2d4>
    1844:	83 2d       	mov	r24, r3
    1846:	8e 7e       	andi	r24, 0xEE	; 238
    1848:	a8 2e       	mov	r10, r24
    184a:	05 c0       	rjmp	.+10     	; 0x1856 <vfprintf+0x2d4>
    184c:	b8 2c       	mov	r11, r8
    184e:	a3 2c       	mov	r10, r3
    1850:	03 c0       	rjmp	.+6      	; 0x1858 <vfprintf+0x2d6>
    1852:	b8 2c       	mov	r11, r8
    1854:	01 c0       	rjmp	.+2      	; 0x1858 <vfprintf+0x2d6>
    1856:	b9 2c       	mov	r11, r9
    1858:	a4 fe       	sbrs	r10, 4
    185a:	0f c0       	rjmp	.+30     	; 0x187a <vfprintf+0x2f8>
    185c:	fe 01       	movw	r30, r28
    185e:	e8 0d       	add	r30, r8
    1860:	f1 1d       	adc	r31, r1
    1862:	80 81       	ld	r24, Z
    1864:	80 33       	cpi	r24, 0x30	; 48
    1866:	21 f4       	brne	.+8      	; 0x1870 <vfprintf+0x2ee>
    1868:	9a 2d       	mov	r25, r10
    186a:	99 7e       	andi	r25, 0xE9	; 233
    186c:	a9 2e       	mov	r10, r25
    186e:	09 c0       	rjmp	.+18     	; 0x1882 <vfprintf+0x300>
    1870:	a2 fe       	sbrs	r10, 2
    1872:	06 c0       	rjmp	.+12     	; 0x1880 <vfprintf+0x2fe>
    1874:	b3 94       	inc	r11
    1876:	b3 94       	inc	r11
    1878:	04 c0       	rjmp	.+8      	; 0x1882 <vfprintf+0x300>
    187a:	8a 2d       	mov	r24, r10
    187c:	86 78       	andi	r24, 0x86	; 134
    187e:	09 f0       	breq	.+2      	; 0x1882 <vfprintf+0x300>
    1880:	b3 94       	inc	r11
    1882:	a3 fc       	sbrc	r10, 3
    1884:	11 c0       	rjmp	.+34     	; 0x18a8 <vfprintf+0x326>
    1886:	a0 fe       	sbrs	r10, 0
    1888:	06 c0       	rjmp	.+12     	; 0x1896 <vfprintf+0x314>
    188a:	b2 14       	cp	r11, r2
    188c:	88 f4       	brcc	.+34     	; 0x18b0 <vfprintf+0x32e>
    188e:	28 0c       	add	r2, r8
    1890:	92 2c       	mov	r9, r2
    1892:	9b 18       	sub	r9, r11
    1894:	0e c0       	rjmp	.+28     	; 0x18b2 <vfprintf+0x330>
    1896:	b2 14       	cp	r11, r2
    1898:	60 f4       	brcc	.+24     	; 0x18b2 <vfprintf+0x330>
    189a:	b6 01       	movw	r22, r12
    189c:	80 e2       	ldi	r24, 0x20	; 32
    189e:	90 e0       	ldi	r25, 0x00	; 0
    18a0:	0e 94 db 0c 	call	0x19b6	; 0x19b6 <fputc>
    18a4:	b3 94       	inc	r11
    18a6:	f7 cf       	rjmp	.-18     	; 0x1896 <vfprintf+0x314>
    18a8:	b2 14       	cp	r11, r2
    18aa:	18 f4       	brcc	.+6      	; 0x18b2 <vfprintf+0x330>
    18ac:	2b 18       	sub	r2, r11
    18ae:	02 c0       	rjmp	.+4      	; 0x18b4 <vfprintf+0x332>
    18b0:	98 2c       	mov	r9, r8
    18b2:	21 2c       	mov	r2, r1
    18b4:	a4 fe       	sbrs	r10, 4
    18b6:	10 c0       	rjmp	.+32     	; 0x18d8 <vfprintf+0x356>
    18b8:	b6 01       	movw	r22, r12
    18ba:	80 e3       	ldi	r24, 0x30	; 48
    18bc:	90 e0       	ldi	r25, 0x00	; 0
    18be:	0e 94 db 0c 	call	0x19b6	; 0x19b6 <fputc>
    18c2:	a2 fe       	sbrs	r10, 2
    18c4:	17 c0       	rjmp	.+46     	; 0x18f4 <vfprintf+0x372>
    18c6:	a1 fc       	sbrc	r10, 1
    18c8:	03 c0       	rjmp	.+6      	; 0x18d0 <vfprintf+0x34e>
    18ca:	88 e7       	ldi	r24, 0x78	; 120
    18cc:	90 e0       	ldi	r25, 0x00	; 0
    18ce:	02 c0       	rjmp	.+4      	; 0x18d4 <vfprintf+0x352>
    18d0:	88 e5       	ldi	r24, 0x58	; 88
    18d2:	90 e0       	ldi	r25, 0x00	; 0
    18d4:	b6 01       	movw	r22, r12
    18d6:	0c c0       	rjmp	.+24     	; 0x18f0 <vfprintf+0x36e>
    18d8:	8a 2d       	mov	r24, r10
    18da:	86 78       	andi	r24, 0x86	; 134
    18dc:	59 f0       	breq	.+22     	; 0x18f4 <vfprintf+0x372>
    18de:	a1 fe       	sbrs	r10, 1
    18e0:	02 c0       	rjmp	.+4      	; 0x18e6 <vfprintf+0x364>
    18e2:	8b e2       	ldi	r24, 0x2B	; 43
    18e4:	01 c0       	rjmp	.+2      	; 0x18e8 <vfprintf+0x366>
    18e6:	80 e2       	ldi	r24, 0x20	; 32
    18e8:	a7 fc       	sbrc	r10, 7
    18ea:	8d e2       	ldi	r24, 0x2D	; 45
    18ec:	b6 01       	movw	r22, r12
    18ee:	90 e0       	ldi	r25, 0x00	; 0
    18f0:	0e 94 db 0c 	call	0x19b6	; 0x19b6 <fputc>
    18f4:	89 14       	cp	r8, r9
    18f6:	38 f4       	brcc	.+14     	; 0x1906 <vfprintf+0x384>
    18f8:	b6 01       	movw	r22, r12
    18fa:	80 e3       	ldi	r24, 0x30	; 48
    18fc:	90 e0       	ldi	r25, 0x00	; 0
    18fe:	0e 94 db 0c 	call	0x19b6	; 0x19b6 <fputc>
    1902:	9a 94       	dec	r9
    1904:	f7 cf       	rjmp	.-18     	; 0x18f4 <vfprintf+0x372>
    1906:	8a 94       	dec	r8
    1908:	f3 01       	movw	r30, r6
    190a:	e8 0d       	add	r30, r8
    190c:	f1 1d       	adc	r31, r1
    190e:	80 81       	ld	r24, Z
    1910:	b6 01       	movw	r22, r12
    1912:	90 e0       	ldi	r25, 0x00	; 0
    1914:	0e 94 db 0c 	call	0x19b6	; 0x19b6 <fputc>
    1918:	81 10       	cpse	r8, r1
    191a:	f5 cf       	rjmp	.-22     	; 0x1906 <vfprintf+0x384>
    191c:	22 20       	and	r2, r2
    191e:	09 f4       	brne	.+2      	; 0x1922 <vfprintf+0x3a0>
    1920:	42 ce       	rjmp	.-892    	; 0x15a6 <vfprintf+0x24>
    1922:	b6 01       	movw	r22, r12
    1924:	80 e2       	ldi	r24, 0x20	; 32
    1926:	90 e0       	ldi	r25, 0x00	; 0
    1928:	0e 94 db 0c 	call	0x19b6	; 0x19b6 <fputc>
    192c:	2a 94       	dec	r2
    192e:	f6 cf       	rjmp	.-20     	; 0x191c <vfprintf+0x39a>
    1930:	f6 01       	movw	r30, r12
    1932:	86 81       	ldd	r24, Z+6	; 0x06
    1934:	97 81       	ldd	r25, Z+7	; 0x07
    1936:	02 c0       	rjmp	.+4      	; 0x193c <vfprintf+0x3ba>
    1938:	8f ef       	ldi	r24, 0xFF	; 255
    193a:	9f ef       	ldi	r25, 0xFF	; 255
    193c:	2b 96       	adiw	r28, 0x0b	; 11
    193e:	e2 e1       	ldi	r30, 0x12	; 18
    1940:	0c 94 91 0d 	jmp	0x1b22	; 0x1b22 <__epilogue_restores__>

00001944 <calloc>:
    1944:	0f 93       	push	r16
    1946:	1f 93       	push	r17
    1948:	cf 93       	push	r28
    194a:	df 93       	push	r29
    194c:	86 9f       	mul	r24, r22
    194e:	80 01       	movw	r16, r0
    1950:	87 9f       	mul	r24, r23
    1952:	10 0d       	add	r17, r0
    1954:	96 9f       	mul	r25, r22
    1956:	10 0d       	add	r17, r0
    1958:	11 24       	eor	r1, r1
    195a:	c8 01       	movw	r24, r16
    195c:	0e 94 ed 08 	call	0x11da	; 0x11da <malloc>
    1960:	ec 01       	movw	r28, r24
    1962:	00 97       	sbiw	r24, 0x00	; 0
    1964:	29 f0       	breq	.+10     	; 0x1970 <calloc+0x2c>
    1966:	a8 01       	movw	r20, r16
    1968:	60 e0       	ldi	r22, 0x00	; 0
    196a:	70 e0       	ldi	r23, 0x00	; 0
    196c:	0e 94 c9 0c 	call	0x1992	; 0x1992 <memset>
    1970:	ce 01       	movw	r24, r28
    1972:	df 91       	pop	r29
    1974:	cf 91       	pop	r28
    1976:	1f 91       	pop	r17
    1978:	0f 91       	pop	r16
    197a:	08 95       	ret

0000197c <strnlen_P>:
    197c:	fc 01       	movw	r30, r24
    197e:	05 90       	lpm	r0, Z+
    1980:	61 50       	subi	r22, 0x01	; 1
    1982:	70 40       	sbci	r23, 0x00	; 0
    1984:	01 10       	cpse	r0, r1
    1986:	d8 f7       	brcc	.-10     	; 0x197e <strnlen_P+0x2>
    1988:	80 95       	com	r24
    198a:	90 95       	com	r25
    198c:	8e 0f       	add	r24, r30
    198e:	9f 1f       	adc	r25, r31
    1990:	08 95       	ret

00001992 <memset>:
    1992:	dc 01       	movw	r26, r24
    1994:	01 c0       	rjmp	.+2      	; 0x1998 <memset+0x6>
    1996:	6d 93       	st	X+, r22
    1998:	41 50       	subi	r20, 0x01	; 1
    199a:	50 40       	sbci	r21, 0x00	; 0
    199c:	e0 f7       	brcc	.-8      	; 0x1996 <memset+0x4>
    199e:	08 95       	ret

000019a0 <strnlen>:
    19a0:	fc 01       	movw	r30, r24
    19a2:	61 50       	subi	r22, 0x01	; 1
    19a4:	70 40       	sbci	r23, 0x00	; 0
    19a6:	01 90       	ld	r0, Z+
    19a8:	01 10       	cpse	r0, r1
    19aa:	d8 f7       	brcc	.-10     	; 0x19a2 <strnlen+0x2>
    19ac:	80 95       	com	r24
    19ae:	90 95       	com	r25
    19b0:	8e 0f       	add	r24, r30
    19b2:	9f 1f       	adc	r25, r31
    19b4:	08 95       	ret

000019b6 <fputc>:
    19b6:	0f 93       	push	r16
    19b8:	1f 93       	push	r17
    19ba:	cf 93       	push	r28
    19bc:	df 93       	push	r29
    19be:	fb 01       	movw	r30, r22
    19c0:	23 81       	ldd	r18, Z+3	; 0x03
    19c2:	21 fd       	sbrc	r18, 1
    19c4:	03 c0       	rjmp	.+6      	; 0x19cc <fputc+0x16>
    19c6:	8f ef       	ldi	r24, 0xFF	; 255
    19c8:	9f ef       	ldi	r25, 0xFF	; 255
    19ca:	2c c0       	rjmp	.+88     	; 0x1a24 <fputc+0x6e>
    19cc:	22 ff       	sbrs	r18, 2
    19ce:	16 c0       	rjmp	.+44     	; 0x19fc <fputc+0x46>
    19d0:	46 81       	ldd	r20, Z+6	; 0x06
    19d2:	57 81       	ldd	r21, Z+7	; 0x07
    19d4:	24 81       	ldd	r18, Z+4	; 0x04
    19d6:	35 81       	ldd	r19, Z+5	; 0x05
    19d8:	42 17       	cp	r20, r18
    19da:	53 07       	cpc	r21, r19
    19dc:	44 f4       	brge	.+16     	; 0x19ee <fputc+0x38>
    19de:	a0 81       	ld	r26, Z
    19e0:	b1 81       	ldd	r27, Z+1	; 0x01
    19e2:	9d 01       	movw	r18, r26
    19e4:	2f 5f       	subi	r18, 0xFF	; 255
    19e6:	3f 4f       	sbci	r19, 0xFF	; 255
    19e8:	31 83       	std	Z+1, r19	; 0x01
    19ea:	20 83       	st	Z, r18
    19ec:	8c 93       	st	X, r24
    19ee:	26 81       	ldd	r18, Z+6	; 0x06
    19f0:	37 81       	ldd	r19, Z+7	; 0x07
    19f2:	2f 5f       	subi	r18, 0xFF	; 255
    19f4:	3f 4f       	sbci	r19, 0xFF	; 255
    19f6:	37 83       	std	Z+7, r19	; 0x07
    19f8:	26 83       	std	Z+6, r18	; 0x06
    19fa:	14 c0       	rjmp	.+40     	; 0x1a24 <fputc+0x6e>
    19fc:	8b 01       	movw	r16, r22
    19fe:	ec 01       	movw	r28, r24
    1a00:	fb 01       	movw	r30, r22
    1a02:	00 84       	ldd	r0, Z+8	; 0x08
    1a04:	f1 85       	ldd	r31, Z+9	; 0x09
    1a06:	e0 2d       	mov	r30, r0
    1a08:	09 95       	icall
    1a0a:	89 2b       	or	r24, r25
    1a0c:	e1 f6       	brne	.-72     	; 0x19c6 <fputc+0x10>
    1a0e:	d8 01       	movw	r26, r16
    1a10:	16 96       	adiw	r26, 0x06	; 6
    1a12:	8d 91       	ld	r24, X+
    1a14:	9c 91       	ld	r25, X
    1a16:	17 97       	sbiw	r26, 0x07	; 7
    1a18:	01 96       	adiw	r24, 0x01	; 1
    1a1a:	17 96       	adiw	r26, 0x07	; 7
    1a1c:	9c 93       	st	X, r25
    1a1e:	8e 93       	st	-X, r24
    1a20:	16 97       	sbiw	r26, 0x06	; 6
    1a22:	ce 01       	movw	r24, r28
    1a24:	df 91       	pop	r29
    1a26:	cf 91       	pop	r28
    1a28:	1f 91       	pop	r17
    1a2a:	0f 91       	pop	r16
    1a2c:	08 95       	ret

00001a2e <__ultoa_invert>:
    1a2e:	fa 01       	movw	r30, r20
    1a30:	aa 27       	eor	r26, r26
    1a32:	28 30       	cpi	r18, 0x08	; 8
    1a34:	51 f1       	breq	.+84     	; 0x1a8a <__ultoa_invert+0x5c>
    1a36:	20 31       	cpi	r18, 0x10	; 16
    1a38:	81 f1       	breq	.+96     	; 0x1a9a <__ultoa_invert+0x6c>
    1a3a:	e8 94       	clt
    1a3c:	6f 93       	push	r22
    1a3e:	6e 7f       	andi	r22, 0xFE	; 254
    1a40:	6e 5f       	subi	r22, 0xFE	; 254
    1a42:	7f 4f       	sbci	r23, 0xFF	; 255
    1a44:	8f 4f       	sbci	r24, 0xFF	; 255
    1a46:	9f 4f       	sbci	r25, 0xFF	; 255
    1a48:	af 4f       	sbci	r26, 0xFF	; 255
    1a4a:	b1 e0       	ldi	r27, 0x01	; 1
    1a4c:	3e d0       	rcall	.+124    	; 0x1aca <__ultoa_invert+0x9c>
    1a4e:	b4 e0       	ldi	r27, 0x04	; 4
    1a50:	3c d0       	rcall	.+120    	; 0x1aca <__ultoa_invert+0x9c>
    1a52:	67 0f       	add	r22, r23
    1a54:	78 1f       	adc	r23, r24
    1a56:	89 1f       	adc	r24, r25
    1a58:	9a 1f       	adc	r25, r26
    1a5a:	a1 1d       	adc	r26, r1
    1a5c:	68 0f       	add	r22, r24
    1a5e:	79 1f       	adc	r23, r25
    1a60:	8a 1f       	adc	r24, r26
    1a62:	91 1d       	adc	r25, r1
    1a64:	a1 1d       	adc	r26, r1
    1a66:	6a 0f       	add	r22, r26
    1a68:	71 1d       	adc	r23, r1
    1a6a:	81 1d       	adc	r24, r1
    1a6c:	91 1d       	adc	r25, r1
    1a6e:	a1 1d       	adc	r26, r1
    1a70:	20 d0       	rcall	.+64     	; 0x1ab2 <__ultoa_invert+0x84>
    1a72:	09 f4       	brne	.+2      	; 0x1a76 <__ultoa_invert+0x48>
    1a74:	68 94       	set
    1a76:	3f 91       	pop	r19
    1a78:	2a e0       	ldi	r18, 0x0A	; 10
    1a7a:	26 9f       	mul	r18, r22
    1a7c:	11 24       	eor	r1, r1
    1a7e:	30 19       	sub	r19, r0
    1a80:	30 5d       	subi	r19, 0xD0	; 208
    1a82:	31 93       	st	Z+, r19
    1a84:	de f6       	brtc	.-74     	; 0x1a3c <__ultoa_invert+0xe>
    1a86:	cf 01       	movw	r24, r30
    1a88:	08 95       	ret
    1a8a:	46 2f       	mov	r20, r22
    1a8c:	47 70       	andi	r20, 0x07	; 7
    1a8e:	40 5d       	subi	r20, 0xD0	; 208
    1a90:	41 93       	st	Z+, r20
    1a92:	b3 e0       	ldi	r27, 0x03	; 3
    1a94:	0f d0       	rcall	.+30     	; 0x1ab4 <__ultoa_invert+0x86>
    1a96:	c9 f7       	brne	.-14     	; 0x1a8a <__ultoa_invert+0x5c>
    1a98:	f6 cf       	rjmp	.-20     	; 0x1a86 <__ultoa_invert+0x58>
    1a9a:	46 2f       	mov	r20, r22
    1a9c:	4f 70       	andi	r20, 0x0F	; 15
    1a9e:	40 5d       	subi	r20, 0xD0	; 208
    1aa0:	4a 33       	cpi	r20, 0x3A	; 58
    1aa2:	18 f0       	brcs	.+6      	; 0x1aaa <__ultoa_invert+0x7c>
    1aa4:	49 5d       	subi	r20, 0xD9	; 217
    1aa6:	31 fd       	sbrc	r19, 1
    1aa8:	40 52       	subi	r20, 0x20	; 32
    1aaa:	41 93       	st	Z+, r20
    1aac:	02 d0       	rcall	.+4      	; 0x1ab2 <__ultoa_invert+0x84>
    1aae:	a9 f7       	brne	.-22     	; 0x1a9a <__ultoa_invert+0x6c>
    1ab0:	ea cf       	rjmp	.-44     	; 0x1a86 <__ultoa_invert+0x58>
    1ab2:	b4 e0       	ldi	r27, 0x04	; 4
    1ab4:	a6 95       	lsr	r26
    1ab6:	97 95       	ror	r25
    1ab8:	87 95       	ror	r24
    1aba:	77 95       	ror	r23
    1abc:	67 95       	ror	r22
    1abe:	ba 95       	dec	r27
    1ac0:	c9 f7       	brne	.-14     	; 0x1ab4 <__ultoa_invert+0x86>
    1ac2:	00 97       	sbiw	r24, 0x00	; 0
    1ac4:	61 05       	cpc	r22, r1
    1ac6:	71 05       	cpc	r23, r1
    1ac8:	08 95       	ret
    1aca:	9b 01       	movw	r18, r22
    1acc:	ac 01       	movw	r20, r24
    1ace:	0a 2e       	mov	r0, r26
    1ad0:	06 94       	lsr	r0
    1ad2:	57 95       	ror	r21
    1ad4:	47 95       	ror	r20
    1ad6:	37 95       	ror	r19
    1ad8:	27 95       	ror	r18
    1ada:	ba 95       	dec	r27
    1adc:	c9 f7       	brne	.-14     	; 0x1ad0 <__ultoa_invert+0xa2>
    1ade:	62 0f       	add	r22, r18
    1ae0:	73 1f       	adc	r23, r19
    1ae2:	84 1f       	adc	r24, r20
    1ae4:	95 1f       	adc	r25, r21
    1ae6:	a0 1d       	adc	r26, r0
    1ae8:	08 95       	ret

00001aea <__prologue_saves__>:
    1aea:	2f 92       	push	r2
    1aec:	3f 92       	push	r3
    1aee:	4f 92       	push	r4
    1af0:	5f 92       	push	r5
    1af2:	6f 92       	push	r6
    1af4:	7f 92       	push	r7
    1af6:	8f 92       	push	r8
    1af8:	9f 92       	push	r9
    1afa:	af 92       	push	r10
    1afc:	bf 92       	push	r11
    1afe:	cf 92       	push	r12
    1b00:	df 92       	push	r13
    1b02:	ef 92       	push	r14
    1b04:	ff 92       	push	r15
    1b06:	0f 93       	push	r16
    1b08:	1f 93       	push	r17
    1b0a:	cf 93       	push	r28
    1b0c:	df 93       	push	r29
    1b0e:	cd b7       	in	r28, 0x3d	; 61
    1b10:	de b7       	in	r29, 0x3e	; 62
    1b12:	ca 1b       	sub	r28, r26
    1b14:	db 0b       	sbc	r29, r27
    1b16:	0f b6       	in	r0, 0x3f	; 63
    1b18:	f8 94       	cli
    1b1a:	de bf       	out	0x3e, r29	; 62
    1b1c:	0f be       	out	0x3f, r0	; 63
    1b1e:	cd bf       	out	0x3d, r28	; 61
    1b20:	09 94       	ijmp

00001b22 <__epilogue_restores__>:
    1b22:	2a 88       	ldd	r2, Y+18	; 0x12
    1b24:	39 88       	ldd	r3, Y+17	; 0x11
    1b26:	48 88       	ldd	r4, Y+16	; 0x10
    1b28:	5f 84       	ldd	r5, Y+15	; 0x0f
    1b2a:	6e 84       	ldd	r6, Y+14	; 0x0e
    1b2c:	7d 84       	ldd	r7, Y+13	; 0x0d
    1b2e:	8c 84       	ldd	r8, Y+12	; 0x0c
    1b30:	9b 84       	ldd	r9, Y+11	; 0x0b
    1b32:	aa 84       	ldd	r10, Y+10	; 0x0a
    1b34:	b9 84       	ldd	r11, Y+9	; 0x09
    1b36:	c8 84       	ldd	r12, Y+8	; 0x08
    1b38:	df 80       	ldd	r13, Y+7	; 0x07
    1b3a:	ee 80       	ldd	r14, Y+6	; 0x06
    1b3c:	fd 80       	ldd	r15, Y+5	; 0x05
    1b3e:	0c 81       	ldd	r16, Y+4	; 0x04
    1b40:	1b 81       	ldd	r17, Y+3	; 0x03
    1b42:	aa 81       	ldd	r26, Y+2	; 0x02
    1b44:	b9 81       	ldd	r27, Y+1	; 0x01
    1b46:	ce 0f       	add	r28, r30
    1b48:	d1 1d       	adc	r29, r1
    1b4a:	0f b6       	in	r0, 0x3f	; 63
    1b4c:	f8 94       	cli
    1b4e:	de bf       	out	0x3e, r29	; 62
    1b50:	0f be       	out	0x3f, r0	; 63
    1b52:	cd bf       	out	0x3d, r28	; 61
    1b54:	ed 01       	movw	r28, r26
    1b56:	08 95       	ret

00001b58 <_exit>:
    1b58:	f8 94       	cli

00001b5a <__stop_program>:
    1b5a:	ff cf       	rjmp	.-2      	; 0x1b5a <__stop_program>
